

Microchip MPLAB XC8 Assembler V2.36 build 20220127204148 
                                                                                               Wed Mar 23 17:55:30 2022

Microchip MPLAB XC8 C Compiler v2.36 (Free license) build 20220127204148 Og1 
     1                           	processor	16F877A
     2                           	pagewidth 120
     3                           	opt	flic
     4                           	psect	idataBANK0,global,class=CODE,delta=2,noexec
     5                           	psect	idataBANK1,global,class=CODE,delta=2,noexec
     6                           	psect	strings,global,class=STRING,delta=2,noexec
     7                           	psect	cinit,global,class=CODE,merge=1,delta=2
     8                           	psect	dataBANK0,global,class=BANK0,space=1,delta=1,noexec
     9                           	psect	bssBANK1,global,class=BANK1,space=1,delta=1,noexec
    10                           	psect	dataBANK1,global,class=BANK1,space=1,delta=1,noexec
    11                           	psect	cstackCOMMON,global,class=COMMON,space=1,delta=1,noexec
    12                           	psect	cstackBANK0,global,class=BANK0,space=1,delta=1,noexec
    13                           	psect	maintext,global,class=CODE,split=1,delta=2
    14                           	psect	text1,local,class=CODE,merge=1,delta=2
    15                           	psect	text2,local,class=CODE,merge=1,delta=2
    16                           	psect	text3,local,class=CODE,merge=1,delta=2
    17                           	psect	text4,local,class=CODE,merge=1,delta=2,group=1
    18                           	psect	text5,local,class=CODE,merge=1,delta=2
    19                           	psect	text6,local,class=CODE,merge=1,delta=2
    20                           	psect	text7,local,class=CODE,merge=1,delta=2
    21                           	psect	text8,local,class=CODE,merge=1,delta=2
    22                           	psect	text9,local,class=CODE,merge=1,delta=2
    23                           	psect	text10,local,class=CODE,merge=1,delta=2
    24                           	psect	text11,local,class=CODE,merge=1,delta=2
    25                           	psect	text12,local,class=CODE,merge=1,delta=2
    26                           	psect	text13,local,class=CODE,merge=1,delta=2
    27                           	psect	text14,local,class=CODE,merge=1,delta=2
    28                           	psect	text15,local,class=CODE,merge=1,delta=2
    29                           	psect	text16,local,class=CODE,merge=1,delta=2
    30                           	psect	text17,local,class=CODE,merge=1,delta=2
    31                           	psect	text18,local,class=CODE,merge=1,delta=2
    32                           	psect	text19,local,class=CODE,merge=1,delta=2
    33                           	psect	text20,local,class=CODE,merge=1,delta=2
    34                           	psect	text21,local,class=CODE,merge=1,delta=2,group=1
    35                           	psect	text22,local,class=CODE,merge=1,delta=2,group=1
    36                           	psect	text23,local,class=CODE,merge=1,delta=2,group=1
    37                           	psect	text24,local,class=CODE,merge=1,delta=2,group=1
    38                           	psect	text25,local,class=CODE,merge=1,delta=2,group=1
    39                           	psect	text26,local,class=CODE,merge=1,delta=2,group=1
    40                           	psect	text27,local,class=CODE,merge=1,delta=2,group=1
    41                           	psect	idloc,global,abs,ovrld,class=IDLOC,space=5,delta=2,noexec
    42                           	psect	config,global,abs,ovrld,class=CONFIG,space=4,delta=2,noexec
    43                           	dabs	1,0x7E,2
    44  0000                     
    45                           ; Version 2.40
    46                           ; Generated 17/11/2021 GMT
    47                           ; 
    48                           ; Copyright © 2021, Microchip Technology Inc. and its subsidiaries ("Microchip")
    49                           ; All rights reserved.
    50                           ; 
    51                           ; This software is developed by Microchip Technology Inc. and its subsidiaries ("Microch
      +                          ip").
    52                           ; 
    53                           ; Redistribution and use in source and binary forms, with or without modification, are
    54                           ; permitted provided that the following conditions are met:
    55                           ; 
    56                           ;     1. Redistributions of source code must retain the above copyright notice, this lis
      +                          t of
    57                           ;        conditions and the following disclaimer.
    58                           ; 
    59                           ;     2. Redistributions in binary form must reproduce the above copyright notice, this 
      +                          list
    60                           ;        of conditions and the following disclaimer in the documentation and/or other
    61                           ;        materials provided with the distribution. Publication is not required when
    62                           ;        this file is used in an embedded application.
    63                           ; 
    64                           ;     3. Microchip's name may not be used to endorse or promote products derived from th
      +                          is
    65                           ;        software without specific prior written permission.
    66                           ; 
    67                           ; THIS SOFTWARE IS PROVIDED BY MICROCHIP "AS IS" AND ANY EXPRESS OR IMPLIED WARRANTIES,
    68                           ; INCLUDING, BUT NOT LIMITED TO, THE IMPLIED WARRANTIES OF MERCHANTABILITY AND FITNESS F
      +                          OR
    69                           ; PURPOSE ARE DISCLAIMED.  IN NO EVENT SHALL MICROCHIP BE LIABLE FOR ANY DIRECT, INDIREC
      +                          T,
    70                           ; INCIDENTAL, SPECIAL, EXEMPLARY, OR CONSEQUENTIAL DAMAGES (INCLUDING BUT NOT LIMITED TO
    71                           ; PROCUREMENT OF SUBSTITUTE GOODS OR SERVICES; LOSS OF USE, DATA OR PROFITS; OR BUSINESS
    72                           ; INTERRUPTION) HOWSOEVER CAUSED AND ON ANY THEORY OF LIABILITY, WHETHER IN CONTRACT, ST
      +                          RICT
    73                           ; LIABILITY, OR TORT (INCLUDING NEGLIGENCE OR OTHERWISE) ARISING IN ANY WAY OUT OF THE U
      +                          SE OF
    74                           ; THIS SOFTWARE, EVEN IF ADVISED OF THE POSSIBILITY OF SUCH DAMAGE.
    75                           ; 
    76                           ; 
    77                           ; Code-generator required, PIC16F877A Definitions
    78                           ; 
    79                           ; SFR Addresses
    80  0000                     	;# 
    81  0001                     	;# 
    82  0002                     	;# 
    83  0003                     	;# 
    84  0004                     	;# 
    85  0005                     	;# 
    86  0006                     	;# 
    87  0007                     	;# 
    88  0008                     	;# 
    89  0009                     	;# 
    90  000A                     	;# 
    91  000B                     	;# 
    92  000C                     	;# 
    93  000D                     	;# 
    94  000E                     	;# 
    95  000E                     	;# 
    96  000F                     	;# 
    97  0010                     	;# 
    98  0011                     	;# 
    99  0012                     	;# 
   100  0013                     	;# 
   101  0014                     	;# 
   102  0015                     	;# 
   103  0015                     	;# 
   104  0016                     	;# 
   105  0017                     	;# 
   106  0018                     	;# 
   107  0019                     	;# 
   108  001A                     	;# 
   109  001B                     	;# 
   110  001B                     	;# 
   111  001C                     	;# 
   112  001D                     	;# 
   113  001E                     	;# 
   114  001F                     	;# 
   115  0081                     	;# 
   116  0085                     	;# 
   117  0086                     	;# 
   118  0087                     	;# 
   119  0088                     	;# 
   120  0089                     	;# 
   121  008C                     	;# 
   122  008D                     	;# 
   123  008E                     	;# 
   124  0091                     	;# 
   125  0092                     	;# 
   126  0093                     	;# 
   127  0094                     	;# 
   128  0098                     	;# 
   129  0099                     	;# 
   130  009C                     	;# 
   131  009D                     	;# 
   132  009E                     	;# 
   133  009F                     	;# 
   134  010C                     	;# 
   135  010D                     	;# 
   136  010E                     	;# 
   137  010F                     	;# 
   138  018C                     	;# 
   139  018D                     	;# 
   140  0000                     	;# 
   141  0001                     	;# 
   142  0002                     	;# 
   143  0003                     	;# 
   144  0004                     	;# 
   145  0005                     	;# 
   146  0006                     	;# 
   147  0007                     	;# 
   148  0008                     	;# 
   149  0009                     	;# 
   150  000A                     	;# 
   151  000B                     	;# 
   152  000C                     	;# 
   153  000D                     	;# 
   154  000E                     	;# 
   155  000E                     	;# 
   156  000F                     	;# 
   157  0010                     	;# 
   158  0011                     	;# 
   159  0012                     	;# 
   160  0013                     	;# 
   161  0014                     	;# 
   162  0015                     	;# 
   163  0015                     	;# 
   164  0016                     	;# 
   165  0017                     	;# 
   166  0018                     	;# 
   167  0019                     	;# 
   168  001A                     	;# 
   169  001B                     	;# 
   170  001B                     	;# 
   171  001C                     	;# 
   172  001D                     	;# 
   173  001E                     	;# 
   174  001F                     	;# 
   175  0081                     	;# 
   176  0085                     	;# 
   177  0086                     	;# 
   178  0087                     	;# 
   179  0088                     	;# 
   180  0089                     	;# 
   181  008C                     	;# 
   182  008D                     	;# 
   183  008E                     	;# 
   184  0091                     	;# 
   185  0092                     	;# 
   186  0093                     	;# 
   187  0094                     	;# 
   188  0098                     	;# 
   189  0099                     	;# 
   190  009C                     	;# 
   191  009D                     	;# 
   192  009E                     	;# 
   193  009F                     	;# 
   194  010C                     	;# 
   195  010D                     	;# 
   196  010E                     	;# 
   197  010F                     	;# 
   198  018C                     	;# 
   199  018D                     	;# 
   200  0000                     	;# 
   201  0001                     	;# 
   202  0002                     	;# 
   203  0003                     	;# 
   204  0004                     	;# 
   205  0005                     	;# 
   206  0006                     	;# 
   207  0007                     	;# 
   208  0008                     	;# 
   209  0009                     	;# 
   210  000A                     	;# 
   211  000B                     	;# 
   212  000C                     	;# 
   213  000D                     	;# 
   214  000E                     	;# 
   215  000E                     	;# 
   216  000F                     	;# 
   217  0010                     	;# 
   218  0011                     	;# 
   219  0012                     	;# 
   220  0013                     	;# 
   221  0014                     	;# 
   222  0015                     	;# 
   223  0015                     	;# 
   224  0016                     	;# 
   225  0017                     	;# 
   226  0018                     	;# 
   227  0019                     	;# 
   228  001A                     	;# 
   229  001B                     	;# 
   230  001B                     	;# 
   231  001C                     	;# 
   232  001D                     	;# 
   233  001E                     	;# 
   234  001F                     	;# 
   235  0081                     	;# 
   236  0085                     	;# 
   237  0086                     	;# 
   238  0087                     	;# 
   239  0088                     	;# 
   240  0089                     	;# 
   241  008C                     	;# 
   242  008D                     	;# 
   243  008E                     	;# 
   244  0091                     	;# 
   245  0092                     	;# 
   246  0093                     	;# 
   247  0094                     	;# 
   248  0098                     	;# 
   249  0099                     	;# 
   250  009C                     	;# 
   251  009D                     	;# 
   252  009E                     	;# 
   253  009F                     	;# 
   254  010C                     	;# 
   255  010D                     	;# 
   256  010E                     	;# 
   257  010F                     	;# 
   258  018C                     	;# 
   259  018D                     	;# 
   260  0000                     	;# 
   261  0001                     	;# 
   262  0002                     	;# 
   263  0003                     	;# 
   264  0004                     	;# 
   265  0005                     	;# 
   266  0006                     	;# 
   267  0007                     	;# 
   268  0008                     	;# 
   269  0009                     	;# 
   270  000A                     	;# 
   271  000B                     	;# 
   272  000C                     	;# 
   273  000D                     	;# 
   274  000E                     	;# 
   275  000E                     	;# 
   276  000F                     	;# 
   277  0010                     	;# 
   278  0011                     	;# 
   279  0012                     	;# 
   280  0013                     	;# 
   281  0014                     	;# 
   282  0015                     	;# 
   283  0015                     	;# 
   284  0016                     	;# 
   285  0017                     	;# 
   286  0018                     	;# 
   287  0019                     	;# 
   288  001A                     	;# 
   289  001B                     	;# 
   290  001B                     	;# 
   291  001C                     	;# 
   292  001D                     	;# 
   293  001E                     	;# 
   294  001F                     	;# 
   295  0081                     	;# 
   296  0085                     	;# 
   297  0086                     	;# 
   298  0087                     	;# 
   299  0088                     	;# 
   300  0089                     	;# 
   301  008C                     	;# 
   302  008D                     	;# 
   303  008E                     	;# 
   304  0091                     	;# 
   305  0092                     	;# 
   306  0093                     	;# 
   307  0094                     	;# 
   308  0098                     	;# 
   309  0099                     	;# 
   310  009C                     	;# 
   311  009D                     	;# 
   312  009E                     	;# 
   313  009F                     	;# 
   314  010C                     	;# 
   315  010D                     	;# 
   316  010E                     	;# 
   317  010F                     	;# 
   318  018C                     	;# 
   319  018D                     	;# 
   320  0000                     	;# 
   321  0001                     	;# 
   322  0002                     	;# 
   323  0003                     	;# 
   324  0004                     	;# 
   325  0005                     	;# 
   326  0006                     	;# 
   327  0007                     	;# 
   328  0008                     	;# 
   329  0009                     	;# 
   330  000A                     	;# 
   331  000B                     	;# 
   332  000C                     	;# 
   333  000D                     	;# 
   334  000E                     	;# 
   335  000E                     	;# 
   336  000F                     	;# 
   337  0010                     	;# 
   338  0011                     	;# 
   339  0012                     	;# 
   340  0013                     	;# 
   341  0014                     	;# 
   342  0015                     	;# 
   343  0015                     	;# 
   344  0016                     	;# 
   345  0017                     	;# 
   346  0018                     	;# 
   347  0019                     	;# 
   348  001A                     	;# 
   349  001B                     	;# 
   350  001B                     	;# 
   351  001C                     	;# 
   352  001D                     	;# 
   353  001E                     	;# 
   354  001F                     	;# 
   355  0081                     	;# 
   356  0085                     	;# 
   357  0086                     	;# 
   358  0087                     	;# 
   359  0088                     	;# 
   360  0089                     	;# 
   361  008C                     	;# 
   362  008D                     	;# 
   363  008E                     	;# 
   364  0091                     	;# 
   365  0092                     	;# 
   366  0093                     	;# 
   367  0094                     	;# 
   368  0098                     	;# 
   369  0099                     	;# 
   370  009C                     	;# 
   371  009D                     	;# 
   372  009E                     	;# 
   373  009F                     	;# 
   374  010C                     	;# 
   375  010D                     	;# 
   376  010E                     	;# 
   377  010F                     	;# 
   378  018C                     	;# 
   379  018D                     	;# 
   380  0000                     	;# 
   381  0001                     	;# 
   382  0002                     	;# 
   383  0003                     	;# 
   384  0004                     	;# 
   385  0005                     	;# 
   386  0006                     	;# 
   387  0007                     	;# 
   388  0008                     	;# 
   389  0009                     	;# 
   390  000A                     	;# 
   391  000B                     	;# 
   392  000C                     	;# 
   393  000D                     	;# 
   394  000E                     	;# 
   395  000E                     	;# 
   396  000F                     	;# 
   397  0010                     	;# 
   398  0011                     	;# 
   399  0012                     	;# 
   400  0013                     	;# 
   401  0014                     	;# 
   402  0015                     	;# 
   403  0015                     	;# 
   404  0016                     	;# 
   405  0017                     	;# 
   406  0018                     	;# 
   407  0019                     	;# 
   408  001A                     	;# 
   409  001B                     	;# 
   410  001B                     	;# 
   411  001C                     	;# 
   412  001D                     	;# 
   413  001E                     	;# 
   414  001F                     	;# 
   415  0081                     	;# 
   416  0085                     	;# 
   417  0086                     	;# 
   418  0087                     	;# 
   419  0088                     	;# 
   420  0089                     	;# 
   421  008C                     	;# 
   422  008D                     	;# 
   423  008E                     	;# 
   424  0091                     	;# 
   425  0092                     	;# 
   426  0093                     	;# 
   427  0094                     	;# 
   428  0098                     	;# 
   429  0099                     	;# 
   430  009C                     	;# 
   431  009D                     	;# 
   432  009E                     	;# 
   433  009F                     	;# 
   434  010C                     	;# 
   435  010D                     	;# 
   436  010E                     	;# 
   437  010F                     	;# 
   438  018C                     	;# 
   439  018D                     	;# 
   440  0000                     	;# 
   441  0001                     	;# 
   442  0002                     	;# 
   443  0003                     	;# 
   444  0004                     	;# 
   445  0005                     	;# 
   446  0006                     	;# 
   447  0007                     	;# 
   448  0008                     	;# 
   449  0009                     	;# 
   450  000A                     	;# 
   451  000B                     	;# 
   452  000C                     	;# 
   453  000D                     	;# 
   454  000E                     	;# 
   455  000E                     	;# 
   456  000F                     	;# 
   457  0010                     	;# 
   458  0011                     	;# 
   459  0012                     	;# 
   460  0013                     	;# 
   461  0014                     	;# 
   462  0015                     	;# 
   463  0015                     	;# 
   464  0016                     	;# 
   465  0017                     	;# 
   466  0018                     	;# 
   467  0019                     	;# 
   468  001A                     	;# 
   469  001B                     	;# 
   470  001B                     	;# 
   471  001C                     	;# 
   472  001D                     	;# 
   473  001E                     	;# 
   474  001F                     	;# 
   475  0081                     	;# 
   476  0085                     	;# 
   477  0086                     	;# 
   478  0087                     	;# 
   479  0088                     	;# 
   480  0089                     	;# 
   481  008C                     	;# 
   482  008D                     	;# 
   483  008E                     	;# 
   484  0091                     	;# 
   485  0092                     	;# 
   486  0093                     	;# 
   487  0094                     	;# 
   488  0098                     	;# 
   489  0099                     	;# 
   490  009C                     	;# 
   491  009D                     	;# 
   492  009E                     	;# 
   493  009F                     	;# 
   494  010C                     	;# 
   495  010D                     	;# 
   496  010E                     	;# 
   497  010F                     	;# 
   498  018C                     	;# 
   499  018D                     	;# 
   500  0000                     	;# 
   501  0001                     	;# 
   502  0002                     	;# 
   503  0003                     	;# 
   504  0004                     	;# 
   505  0005                     	;# 
   506  0006                     	;# 
   507  0007                     	;# 
   508  0008                     	;# 
   509  0009                     	;# 
   510  000A                     	;# 
   511  000B                     	;# 
   512  000C                     	;# 
   513  000D                     	;# 
   514  000E                     	;# 
   515  000E                     	;# 
   516  000F                     	;# 
   517  0010                     	;# 
   518  0011                     	;# 
   519  0012                     	;# 
   520  0013                     	;# 
   521  0014                     	;# 
   522  0015                     	;# 
   523  0015                     	;# 
   524  0016                     	;# 
   525  0017                     	;# 
   526  0018                     	;# 
   527  0019                     	;# 
   528  001A                     	;# 
   529  001B                     	;# 
   530  001B                     	;# 
   531  001C                     	;# 
   532  001D                     	;# 
   533  001E                     	;# 
   534  001F                     	;# 
   535  0081                     	;# 
   536  0085                     	;# 
   537  0086                     	;# 
   538  0087                     	;# 
   539  0088                     	;# 
   540  0089                     	;# 
   541  008C                     	;# 
   542  008D                     	;# 
   543  008E                     	;# 
   544  0091                     	;# 
   545  0092                     	;# 
   546  0093                     	;# 
   547  0094                     	;# 
   548  0098                     	;# 
   549  0099                     	;# 
   550  009C                     	;# 
   551  009D                     	;# 
   552  009E                     	;# 
   553  009F                     	;# 
   554  010C                     	;# 
   555  010D                     	;# 
   556  010E                     	;# 
   557  010F                     	;# 
   558  018C                     	;# 
   559  018D                     	;# 
   560                           
   561                           	psect	idataBANK0
   562  0C9A                     __pidataBANK0:
   563                           
   564                           ;initializer for read_digital_keypad@once
   565  0C9A  3401               	retlw	1
   566                           
   567                           	psect	idataBANK1
   568  0C9B                     __pidataBANK1:
   569                           
   570                           ;initializer for main@F911
   571  0C9B  344F               	retlw	79
   572  0C9C  344E               	retlw	78
   573  0C9D  3400               	retlw	0
   574  0006                     _PORTB	set	6
   575  0013                     _SSPBUF	set	19
   576  0008                     _PORTD	set	8
   577  001E                     _ADRESH	set	30
   578  00A5                     _SSPEN	set	165
   579  00A3                     _SSPM3	set	163
   580  0049                     _RE1	set	73
   581  004A                     _RE2	set	74
   582  00FA                     _nDONE	set	250
   583  00FA                     _GO	set	250
   584  00F8                     _ADON	set	248
   585  0086                     _TRISB	set	134
   586  0091                     _SSPCON2	set	145
   587  0093                     _SSPADD	set	147
   588  0088                     _TRISD	set	136
   589  009E                     _ADRESL	set	158
   590  048E                     _ACKSTAT	set	1166
   591  048C                     _ACKEN	set	1164
   592  048D                     _ACKDT	set	1165
   593  048B                     _RCEN	set	1163
   594  048A                     _PEN	set	1162
   595  0488                     _SEN	set	1160
   596  04A2                     _R_nW	set	1186
   597  0449                     _TRISE1	set	1097
   598  044A                     _TRISE2	set	1098
   599  04FF                     _ADFM	set	1279
   600                           
   601                           	psect	strings
   602  0800                     __pstrings:
   603  0800                     stringtab:
   604  0800                     __stringtab:
   605  0800                     stringcode:	
   606                           ;	String table - string pointers are 1 byte each
   607                           
   608  0800                     stringdir:
   609  0800  3008               	movlw	high stringdir
   610  0801  008A               	movwf	10
   611  0802  0804               	movf	4,w
   612  0803  0A84               	incf	4,f
   613  0804  0782               	addwf	2,f
   614  0805                     __stringbase:
   615  0805  3400               	retlw	0
   616  0806                     __end_of__stringtab:
   617  0806                     STR_1:
   618  0806  3420               	retlw	32	;' '
   619  0807  3420               	retlw	32	;' '
   620  0808  3454               	retlw	84	;'T'
   621  0809  3449               	retlw	73	;'I'
   622  080A  344D               	retlw	77	;'M'
   623  080B  3445               	retlw	69	;'E'
   624  080C  3420               	retlw	32	;' '
   625  080D  3420               	retlw	32	;' '
   626  080E  3420               	retlw	32	;' '
   627  080F  3420               	retlw	32	;' '
   628  0810  3420               	retlw	32	;' '
   629  0811  3445               	retlw	69	;'E'
   630  0812  3420               	retlw	32	;' '
   631  0813  3420               	retlw	32	;' '
   632  0814  3453               	retlw	83	;'S'
   633  0815  3450               	retlw	80	;'P'
   634  0816  3400               	retlw	0
   635                           
   636                           	psect	cinit
   637  07D5                     start_initialization:	
   638                           ; #config settings
   639                           
   640  07D5                     __initialization:
   641                           
   642                           ; Initialize objects allocated to BANK1
   643  07D5  1683               	bsf	3,5	;RP0=1, select bank1
   644  07D6  1303               	bcf	3,6	;RP1=0, select bank1
   645  07D7  120A  158A  249B  120A  118A  	fcall	__pidataBANK1	;fetch initializer
   646  07DC  00A9               	movwf	__pdataBANK1& (0+127)
   647  07DD  120A  158A  249C  120A  118A  	fcall	__pidataBANK1+1	;fetch initializer
   648  07E2  00AA               	movwf	(__pdataBANK1+1)& (0+127)
   649  07E3  120A  158A  249D  120A  118A  	fcall	__pidataBANK1+2	;fetch initializer
   650  07E8  00AB               	movwf	(__pdataBANK1+2)& (0+127)
   651                           
   652                           ; Initialize objects allocated to BANK0
   653  07E9  1283               	bcf	3,5	;RP0=0, select bank0
   654  07EA  1303               	bcf	3,6	;RP1=0, select bank0
   655  07EB  120A  158A  249A  120A  118A  	fcall	__pidataBANK0	;fetch initializer
   656  07F0  00ED               	movwf	__pdataBANK0& (0+127)
   657                           
   658                           ; Clear objects allocated to BANK1
   659  07F1  1683               	bsf	3,5	;RP0=1, select bank1
   660  07F2  1303               	bcf	3,6	;RP1=0, select bank1
   661  07F3  01A0               	clrf	__pbssBANK1& (0+127)
   662  07F4  01A1               	clrf	(__pbssBANK1+1)& (0+127)
   663  07F5  01A2               	clrf	(__pbssBANK1+2)& (0+127)
   664  07F6  01A3               	clrf	(__pbssBANK1+3)& (0+127)
   665  07F7  01A4               	clrf	(__pbssBANK1+4)& (0+127)
   666  07F8  01A5               	clrf	(__pbssBANK1+5)& (0+127)
   667  07F9  01A6               	clrf	(__pbssBANK1+6)& (0+127)
   668  07FA  01A7               	clrf	(__pbssBANK1+7)& (0+127)
   669  07FB  01A8               	clrf	(__pbssBANK1+8)& (0+127)
   670  07FC                     end_of_initialization:	
   671                           ;End of C runtime variable initialization code
   672                           
   673  07FC                     __end_of__initialization:
   674  07FC  0183               	clrf	3
   675  07FD  120A  118A  2946   	ljmp	_main	;jump to C main() function
   676                           
   677                           	psect	dataBANK0
   678  006D                     __pdataBANK0:
   679  006D                     read_digital_keypad@once:
   680  006D                     	ds	1
   681                           
   682                           	psect	bssBANK1
   683  00A0                     __pbssBANK1:
   684  00A0                     _time:
   685  00A0                     	ds	6
   686  00A6                     _clock_reg:
   687  00A6                     	ds	3
   688                           
   689                           	psect	dataBANK1
   690  00A9                     __pdataBANK1:
   691  00A9                     main@F911:
   692  00A9                     	ds	3
   693                           
   694                           	psect	cstackCOMMON
   695  0070                     __pcstackCOMMON:
   696  0070                     ?_init_clcd:
   697  0070                     ?_init_adc:	
   698                           ; 1 bytes @ 0x0
   699                           
   700  0070                     ??_init_adc:	
   701                           ; 1 bytes @ 0x0
   702                           
   703  0070                     ?_read_ds1307:	
   704                           ; 1 bytes @ 0x0
   705                           
   706  0070                     ?_i2c_start:	
   707                           ; 1 bytes @ 0x0
   708                           
   709  0070                     ??_i2c_start:	
   710                           ; 1 bytes @ 0x0
   711                           
   712  0070                     ??_i2c_write:	
   713                           ; 1 bytes @ 0x0
   714                           
   715  0070                     ?_i2c_rep_start:	
   716                           ; 1 bytes @ 0x0
   717                           
   718  0070                     ??_i2c_rep_start:	
   719                           ; 1 bytes @ 0x0
   720                           
   721  0070                     ?_i2c_read:	
   722                           ; 1 bytes @ 0x0
   723                           
   724  0070                     ??_i2c_read:	
   725                           ; 1 bytes @ 0x0
   726                           
   727  0070                     ?_i2c_stop:	
   728                           ; 1 bytes @ 0x0
   729                           
   730  0070                     ??_i2c_stop:	
   731                           ; 1 bytes @ 0x0
   732                           
   733  0070                     ?_init_config:	
   734                           ; 1 bytes @ 0x0
   735                           
   736  0070                     ?_main:	
   737                           ; 1 bytes @ 0x0
   738                           
   739  0070                     ?_clcd_write:	
   740                           ; 1 bytes @ 0x0
   741                           
   742  0070                     ?_init_display_controller:	
   743                           ; 1 bytes @ 0x0
   744                           
   745  0070                     ?_i2c_wait_for_idle:	
   746                           ; 1 bytes @ 0x0
   747                           
   748  0070                     ??_i2c_wait_for_idle:	
   749                           ; 1 bytes @ 0x0
   750                           
   751  0070                     ?_get_time:	
   752                           ; 1 bytes @ 0x0
   753                           
   754  0070                     ?_display_time:	
   755                           ; 1 bytes @ 0x0
   756                           
   757  0070                     ?_read_adc:	
   758                           ; 1 bytes @ 0x0
   759                           
   760  0070                     ?_i2c_write:	
   761                           ; 2 bytes @ 0x0
   762                           
   763  0070                     ?__Umul8_16:	
   764                           ; 2 bytes @ 0x0
   765                           
   766  0070                     ?___awdiv:	
   767                           ; 2 bytes @ 0x0
   768                           
   769  0070                     ?___awmod:	
   770                           ; 2 bytes @ 0x0
   771                           
   772  0070                     ?___lldiv:	
   773                           ; 2 bytes @ 0x0
   774                           
   775  0070                     clcd_write@mode:	
   776                           ; 4 bytes @ 0x0
   777                           
   778  0070                     i2c_write@data:	
   779                           ; 1 bytes @ 0x0
   780                           
   781  0070                     __Umul8_16@multiplicand:	
   782                           ; 1 bytes @ 0x0
   783                           
   784  0070                     ___awdiv@divisor:	
   785                           ; 1 bytes @ 0x0
   786                           
   787  0070                     ___awmod@divisor:	
   788                           ; 2 bytes @ 0x0
   789                           
   790  0070                     ___lldiv@divisor:	
   791                           ; 2 bytes @ 0x0
   792                           
   793                           
   794                           ; 4 bytes @ 0x0
   795  0070                     	ds	1
   796  0071                     ??_clcd_write:
   797  0071                     i2c_read@ack:	
   798                           ; 1 bytes @ 0x1
   799                           
   800                           
   801                           ; 1 bytes @ 0x1
   802  0071                     	ds	1
   803  0072                     ??_read_adc:
   804  0072                     ??__Umul8_16:	
   805                           ; 1 bytes @ 0x2
   806                           
   807  0072                     i2c_read@data:	
   808                           ; 1 bytes @ 0x2
   809                           
   810  0072                     read_adc@adc_reg_val:	
   811                           ; 1 bytes @ 0x2
   812                           
   813  0072                     ___awdiv@dividend:	
   814                           ; 2 bytes @ 0x2
   815                           
   816  0072                     ___awmod@dividend:	
   817                           ; 2 bytes @ 0x2
   818                           
   819                           
   820                           ; 2 bytes @ 0x2
   821  0072                     	ds	1
   822  0073                     ??_read_ds1307:
   823  0073                     clcd_write@byte:	
   824                           ; 1 bytes @ 0x3
   825                           
   826                           
   827                           ; 1 bytes @ 0x3
   828  0073                     	ds	1
   829  0074                     ??_init_display_controller:
   830  0074                     ?_clcd_print:	
   831                           ; 1 bytes @ 0x4
   832                           
   833  0074                     ??___awdiv:	
   834                           ; 1 bytes @ 0x4
   835                           
   836  0074                     ??___awmod:	
   837                           ; 1 bytes @ 0x4
   838                           
   839  0074                     ?___xxtofl:	
   840                           ; 1 bytes @ 0x4
   841                           
   842  0074                     clcd_print@addr:	
   843                           ; 4 bytes @ 0x4
   844                           
   845  0074                     read_ds1307@addr:	
   846                           ; 1 bytes @ 0x4
   847                           
   848  0074                     __Umul8_16@product:	
   849                           ; 1 bytes @ 0x4
   850                           
   851  0074                     ___lldiv@dividend:	
   852                           ; 2 bytes @ 0x4
   853                           
   854  0074                     ___xxtofl@val:	
   855                           ; 4 bytes @ 0x4
   856                           
   857                           
   858                           ; 4 bytes @ 0x4
   859  0074                     	ds	1
   860  0075                     ??_clcd_print:
   861  0075                     read_ds1307@data:	
   862                           ; 1 bytes @ 0x5
   863                           
   864  0075                     ___awdiv@counter:	
   865                           ; 1 bytes @ 0x5
   866                           
   867  0075                     ___awmod@counter:	
   868                           ; 1 bytes @ 0x5
   869                           
   870                           
   871                           ; 1 bytes @ 0x5
   872  0075                     	ds	1
   873  0076                     ??_init_clcd:
   874  0076                     ??_get_time:	
   875                           ; 1 bytes @ 0x6
   876                           
   877  0076                     clcd_print@str:	
   878                           ; 1 bytes @ 0x6
   879                           
   880  0076                     ___awdiv@sign:	
   881                           ; 1 bytes @ 0x6
   882                           
   883  0076                     ___awmod@sign:	
   884                           ; 1 bytes @ 0x6
   885                           
   886  0076                     __Umul8_16@word_mpld:	
   887                           ; 1 bytes @ 0x6
   888                           
   889                           
   890                           ; 2 bytes @ 0x6
   891  0076                     	ds	1
   892  0077                     ___awdiv@quotient:
   893                           
   894                           ; 2 bytes @ 0x7
   895  0077                     	ds	1
   896  0078                     ??___lldiv:
   897  0078                     ??___xxtofl:	
   898                           ; 1 bytes @ 0x8
   899                           
   900  0078                     __Umul8_16@multiplier:	
   901                           ; 1 bytes @ 0x8
   902                           
   903                           
   904                           ; 1 bytes @ 0x8
   905  0078                     	ds	1
   906  0079                     ?_clcd_putch:
   907  0079                     clcd_putch@addr:	
   908                           ; 1 bytes @ 0x9
   909                           
   910  0079                     ___lldiv@quotient:	
   911                           ; 1 bytes @ 0x9
   912                           
   913                           
   914                           ; 4 bytes @ 0x9
   915  0079                     	ds	1
   916  007A                     ??_clcd_putch:
   917  007A                     clcd_putch@data:	
   918                           ; 1 bytes @ 0xA
   919                           
   920                           
   921                           ; 1 bytes @ 0xA
   922  007A                     	ds	1
   923  007B                     ??_display_time:
   924                           
   925                           ; 1 bytes @ 0xB
   926  007B                     	ds	1
   927  007C                     ?_display_dashboard:
   928  007C                     display_dashboard@speed:	
   929                           ; 1 bytes @ 0xC
   930                           
   931  007C                     ___fltol@sign1:	
   932                           ; 1 bytes @ 0xC
   933                           
   934                           
   935                           ; 1 bytes @ 0xC
   936  007C                     	ds	1
   937  007D                     display_dashboard@event:
   938  007D                     ___lldiv@counter:	
   939                           ; 1 bytes @ 0xD
   940                           
   941  007D                     ___fltol@exp1:	
   942                           ; 1 bytes @ 0xD
   943                           
   944                           
   945                           ; 1 bytes @ 0xD
   946  007D                     	ds	1
   947  007E                     ??_init_config:
   948                           
   949                           	psect	cstackBANK0
   950  0020                     __pcstackBANK0:	
   951                           ; 1 bytes @ 0xE
   952                           
   953  0020                     ?_init_i2c:
   954  0020                     ??_display_dashboard:	
   955                           ; 1 bytes @ 0x0
   956                           
   957  0020                     ___xxtofl@sign:	
   958                           ; 1 bytes @ 0x0
   959                           
   960  0020                     init_i2c@baud:	
   961                           ; 1 bytes @ 0x0
   962                           
   963                           
   964                           ; 4 bytes @ 0x0
   965  0020                     	ds	1
   966  0021                     ___xxtofl@exp:
   967                           
   968                           ; 1 bytes @ 0x1
   969  0021                     	ds	1
   970  0022                     ___xxtofl@arg:
   971                           
   972                           ; 4 bytes @ 0x2
   973  0022                     	ds	2
   974  0024                     ??_init_i2c:
   975                           
   976                           ; 1 bytes @ 0x4
   977  0024                     	ds	2
   978  0026                     ?___fldiv:
   979  0026                     ___fldiv@a:	
   980                           ; 4 bytes @ 0x6
   981                           
   982                           
   983                           ; 4 bytes @ 0x6
   984  0026                     	ds	4
   985  002A                     ___fldiv@b:
   986                           
   987                           ; 4 bytes @ 0xA
   988  002A                     	ds	4
   989  002E                     ??___fldiv:
   990                           
   991                           ; 1 bytes @ 0xE
   992  002E                     	ds	5
   993  0033                     ___fldiv@rem:
   994                           
   995                           ; 4 bytes @ 0x13
   996  0033                     	ds	4
   997  0037                     ___fldiv@sign:
   998                           
   999                           ; 1 bytes @ 0x17
  1000  0037                     	ds	1
  1001  0038                     ___fldiv@new_exp:
  1002                           
  1003                           ; 2 bytes @ 0x18
  1004  0038                     	ds	2
  1005  003A                     ___fldiv@grs:
  1006                           
  1007                           ; 4 bytes @ 0x1A
  1008  003A                     	ds	4
  1009  003E                     ___fldiv@bexp:
  1010                           
  1011                           ; 1 bytes @ 0x1E
  1012  003E                     	ds	1
  1013  003F                     ___fldiv@aexp:
  1014                           
  1015                           ; 1 bytes @ 0x1F
  1016  003F                     	ds	1
  1017  0040                     ?___flmul:
  1018  0040                     ___flmul@b:	
  1019                           ; 4 bytes @ 0x20
  1020                           
  1021                           
  1022                           ; 4 bytes @ 0x20
  1023  0040                     	ds	4
  1024  0044                     ___flmul@a:
  1025                           
  1026                           ; 4 bytes @ 0x24
  1027  0044                     	ds	4
  1028  0048                     ??___flmul:
  1029                           
  1030                           ; 1 bytes @ 0x28
  1031  0048                     	ds	5
  1032  004D                     ___flmul@sign:
  1033                           
  1034                           ; 1 bytes @ 0x2D
  1035  004D                     	ds	1
  1036  004E                     ___flmul@grs:
  1037                           
  1038                           ; 4 bytes @ 0x2E
  1039  004E                     	ds	4
  1040  0052                     ___flmul@aexp:
  1041                           
  1042                           ; 1 bytes @ 0x32
  1043  0052                     	ds	1
  1044  0053                     ___flmul@bexp:
  1045                           
  1046                           ; 1 bytes @ 0x33
  1047  0053                     	ds	1
  1048  0054                     ___flmul@prod:
  1049                           
  1050                           ; 4 bytes @ 0x34
  1051  0054                     	ds	4
  1052  0058                     ___flmul@temp:
  1053                           
  1054                           ; 2 bytes @ 0x38
  1055  0058                     	ds	2
  1056  005A                     ?___fltol:
  1057  005A                     ___fltol@f1:	
  1058                           ; 4 bytes @ 0x3A
  1059                           
  1060                           
  1061                           ; 4 bytes @ 0x3A
  1062  005A                     	ds	4
  1063  005E                     ??___fltol:
  1064                           
  1065                           ; 1 bytes @ 0x3E
  1066  005E                     	ds	5
  1067  0063                     ??_main:
  1068                           
  1069                           ; 1 bytes @ 0x43
  1070  0063                     	ds	5
  1071  0068                     main@event:
  1072                           
  1073                           ; 3 bytes @ 0x48
  1074  0068                     	ds	3
  1075  006B                     main@control_flag:
  1076                           
  1077                           ; 1 bytes @ 0x4B
  1078  006B                     	ds	1
  1079  006C                     main@speed:
  1080                           
  1081                           ; 1 bytes @ 0x4C
  1082  006C                     	ds	1
  1083                           
  1084                           	psect	maintext
  1085  0146                     __pmaintext:	
  1086 ;;
  1087 ;;Main: autosize = 0, tempsize = 5, incstack = 0, save=0
  1088 ;;
  1089 ;; *************** function _main *****************
  1090 ;; Defined at:
  1091 ;;		line 27 in file "main.c"
  1092 ;; Parameters:    Size  Location     Type
  1093 ;;		None
  1094 ;; Auto vars:     Size  Location     Type
  1095 ;;  event           3   72[BANK0 ] unsigned char [3]
  1096 ;;  speed           1   76[BANK0 ] unsigned char 
  1097 ;;  control_flag    1   75[BANK0 ] unsigned char 
  1098 ;; Return value:  Size  Location     Type
  1099 ;;                  1    wreg      void 
  1100 ;; Registers used:
  1101 ;;		wreg, fsr0l, fsr0h, status,2, status,0, btemp+1, pclath, cstack
  1102 ;; Tracked objects:
  1103 ;;		On entry : B00/0
  1104 ;;		On exit  : 0/0
  1105 ;;		Unchanged: 0/0
  1106 ;; Data sizes:     COMMON   BANK0   BANK1   BANK3   BANK2
  1107 ;;      Params:         0       0       0       0       0
  1108 ;;      Locals:         0       5       0       0       0
  1109 ;;      Temps:          0       5       0       0       0
  1110 ;;      Totals:         0      10       0       0       0
  1111 ;;Total ram usage:       10 bytes
  1112 ;; Hardware stack levels required when called: 7
  1113 ;; This function calls:
  1114 ;;		___fldiv
  1115 ;;		___flmul
  1116 ;;		___fltol
  1117 ;;		___xxtofl
  1118 ;;		_display_dashboard
  1119 ;;		_init_config
  1120 ;;		_read_adc
  1121 ;; This function is called by:
  1122 ;;		Startup code after reset
  1123 ;; This function uses a non-reentrant model
  1124 ;;
  1125                           
  1126  0146                     _main:	
  1127                           ;psect for function _main
  1128                           
  1129  0146                     l2101:	
  1130                           ;incstack = 0
  1131                           ; Regs used in _main: [wreg-fsr0h+status,2+status,0+btemp+1+pclath+cstack]
  1132                           
  1133                           
  1134                           ;main.c: 28:                 speed = ((float)read_adc()/1023 * 99);
  1135  0146  1683               	bsf	3,5	;RP0=1, select bank1
  1136  0147  1303               	bcf	3,6	;RP1=0, select bank1
  1137  0148  0829               	movf	main@F911^(0+128),w
  1138  0149  1283               	bcf	3,5	;RP0=0, select bank0
  1139  014A  1303               	bcf	3,6	;RP1=0, select bank0
  1140  014B  00E8               	movwf	main@event
  1141  014C  1683               	bsf	3,5	;RP0=1, select bank1
  1142  014D  1303               	bcf	3,6	;RP1=0, select bank1
  1143  014E  082A               	movf	(main@F911+1)^(0+128),w
  1144  014F  1283               	bcf	3,5	;RP0=0, select bank0
  1145  0150  1303               	bcf	3,6	;RP1=0, select bank0
  1146  0151  00E9               	movwf	main@event+1
  1147  0152  1683               	bsf	3,5	;RP0=1, select bank1
  1148  0153  1303               	bcf	3,6	;RP1=0, select bank1
  1149  0154  082B               	movf	(main@F911+2)^(0+128),w
  1150  0155  1283               	bcf	3,5	;RP0=0, select bank0
  1151  0156  1303               	bcf	3,6	;RP1=0, select bank0
  1152  0157  00EA               	movwf	main@event+2
  1153  0158                     l2103:
  1154  0158                     l2105:
  1155                           
  1156                           ;main.c: 31:             default:
  1157  0158  01EB               	clrf	main@control_flag
  1158  0159  0AEB               	incf	main@control_flag,f
  1159  015A                     l2107:
  1160                           
  1161                           ;main.c: 33:                 break;
  1162  015A  120A  118A  2003  120A  118A  	fcall	_init_config
  1163  015F  29C9               	goto	l2115
  1164  0160                     l2109:
  1165  0160  120A  158A  24F6  120A  118A  	fcall	_read_adc
  1166  0165  0870               	movf	?_read_adc,w
  1167  0166  1283               	bcf	3,5	;RP0=0, select bank0
  1168  0167  1303               	bcf	3,6	;RP1=0, select bank0
  1169  0168  00E3               	movwf	??_main
  1170  0169  0871               	movf	?_read_adc+1,w
  1171  016A  00E4               	movwf	??_main+1
  1172  016B  01E5               	clrf	??_main+2
  1173  016C  01E6               	clrf	??_main+3
  1174  016D  0866               	movf	??_main+3,w
  1175  016E  00F7               	movwf	___xxtofl@val+3
  1176  016F  0865               	movf	??_main+2,w
  1177  0170  00F6               	movwf	___xxtofl@val+2
  1178  0171  0864               	movf	??_main+1,w
  1179  0172  00F5               	movwf	___xxtofl@val+1
  1180  0173  0863               	movf	??_main,w
  1181  0174  00F4               	movwf	___xxtofl@val
  1182  0175  3000               	movlw	0
  1183  0176  120A  118A  21DB  120A  118A  	fcall	___xxtofl
  1184  017B  0877               	movf	?___xxtofl+3,w
  1185  017C  1283               	bcf	3,5	;RP0=0, select bank0
  1186  017D  1303               	bcf	3,6	;RP1=0, select bank0
  1187  017E  00AD               	movwf	___fldiv@b+3
  1188  017F  0876               	movf	?___xxtofl+2,w
  1189  0180  00AC               	movwf	___fldiv@b+2
  1190  0181  0875               	movf	?___xxtofl+1,w
  1191  0182  00AB               	movwf	___fldiv@b+1
  1192  0183  0874               	movf	?___xxtofl,w
  1193  0184  00AA               	movwf	___fldiv@b
  1194  0185  3044               	movlw	68
  1195  0186  00A9               	movwf	___fldiv@a+3
  1196  0187  307F               	movlw	127
  1197  0188  00A8               	movwf	___fldiv@a+2
  1198  0189  30C0               	movlw	192
  1199  018A  00A7               	movwf	___fldiv@a+1
  1200  018B  3000               	movlw	0
  1201  018C  00A6               	movwf	___fldiv@a
  1202  018D  120A  118A  2297  120A  118A  	fcall	___fldiv
  1203  0192  1283               	bcf	3,5	;RP0=0, select bank0
  1204  0193  1303               	bcf	3,6	;RP1=0, select bank0
  1205  0194  0829               	movf	?___fldiv+3,w
  1206  0195  00C7               	movwf	___flmul@a+3
  1207  0196  0828               	movf	?___fldiv+2,w
  1208  0197  00C6               	movwf	___flmul@a+2
  1209  0198  0827               	movf	?___fldiv+1,w
  1210  0199  00C5               	movwf	___flmul@a+1
  1211  019A  0826               	movf	?___fldiv,w
  1212  019B  00C4               	movwf	___flmul@a
  1213  019C  3042               	movlw	66
  1214  019D  00C3               	movwf	___flmul@b+3
  1215  019E  30C6               	movlw	198
  1216  019F  00C2               	movwf	___flmul@b+2
  1217  01A0  3000               	movlw	0
  1218  01A1  00C1               	movwf	___flmul@b+1
  1219  01A2  3000               	movlw	0
  1220  01A3  00C0               	movwf	___flmul@b
  1221  01A4  120A  118A  2474  120A  118A  	fcall	___flmul
  1222  01A9  1283               	bcf	3,5	;RP0=0, select bank0
  1223  01AA  1303               	bcf	3,6	;RP1=0, select bank0
  1224  01AB  0843               	movf	?___flmul+3,w
  1225  01AC  00DD               	movwf	___fltol@f1+3
  1226  01AD  0842               	movf	?___flmul+2,w
  1227  01AE  00DC               	movwf	___fltol@f1+2
  1228  01AF  0841               	movf	?___flmul+1,w
  1229  01B0  00DB               	movwf	___fltol@f1+1
  1230  01B1  0840               	movf	?___flmul,w
  1231  01B2  00DA               	movwf	___fltol@f1
  1232  01B3  120A  118A  20CA  120A  118A  	fcall	___fltol
  1233  01B8  1283               	bcf	3,5	;RP0=0, select bank0
  1234  01B9  1303               	bcf	3,6	;RP1=0, select bank0
  1235  01BA  085A               	movf	?___fltol,w
  1236  01BB  00E7               	movwf	??_main+4
  1237  01BC  0867               	movf	??_main+4,w
  1238  01BD  00EC               	movwf	main@speed
  1239  01BE                     l2111:
  1240  01BE  086C               	movf	main@speed,w
  1241  01BF  00E3               	movwf	??_main
  1242  01C0  0863               	movf	??_main,w
  1243  01C1  00FC               	movwf	display_dashboard@speed
  1244  01C2  3068               	movlw	(low (main@event| 0))& (0+255)
  1245  01C3  120A  118A  204F  120A  118A  	fcall	_display_dashboard
  1246  01C8  29C9               	goto	l2115
  1247  01C9                     l21:
  1248  01C9                     l2115:
  1249  01C9  1283               	bcf	3,5	;RP0=0, select bank0
  1250  01CA  1303               	bcf	3,6	;RP1=0, select bank0
  1251  01CB  086B               	movf	main@control_flag,w
  1252  01CC  00E3               	movwf	??_main
  1253  01CD  01E4               	clrf	??_main+1
  1254                           
  1255                           ; Switch on 2 bytes has been partitioned into a top level switch of size 1, and 1 sub-sw
      +                          itches
  1256                           ; Switch size 1, requested type "simple"
  1257                           ; Number of cases is 1, Range of values is 0 to 0
  1258                           ; switch strategies available:
  1259                           ; Name         Instructions Cycles
  1260                           ; simple_byte            4     3 (average)
  1261                           ; direct_byte           11     8 (fixed)
  1262                           ; jumptable            260     6 (fixed)
  1263                           ;	Chosen strategy is simple_byte
  1264  01CE  0864               	movf	??_main+1,w
  1265  01CF  3A00               	xorlw	0	; case 0
  1266  01D0  1903               	skipnz
  1267  01D1  29D3               	goto	l2185
  1268  01D2  29C9               	goto	l21
  1269  01D3                     l2185:
  1270                           
  1271                           ; Switch size 1, requested type "simple"
  1272                           ; Number of cases is 1, Range of values is 1 to 1
  1273                           ; switch strategies available:
  1274                           ; Name         Instructions Cycles
  1275                           ; simple_byte            4     3 (average)
  1276                           ; direct_byte           14    11 (fixed)
  1277                           ; jumptable            263     9 (fixed)
  1278                           ;	Chosen strategy is simple_byte
  1279  01D3  0863               	movf	??_main,w
  1280  01D4  3A01               	xorlw	1	; case 1
  1281  01D5  1903               	skipnz
  1282  01D6  2960               	goto	l2109
  1283  01D7  29C9               	goto	l21
  1284  01D8  120A  118A  2800   	ljmp	start
  1285  01DB                     __end_of_main:
  1286                           
  1287                           	psect	text1
  1288  0CF6                     __ptext1:	
  1289 ;; *************** function _read_adc *****************
  1290 ;; Defined at:
  1291 ;;		line 12 in file "adc.c"
  1292 ;; Parameters:    Size  Location     Type
  1293 ;;		None
  1294 ;; Auto vars:     Size  Location     Type
  1295 ;;  adc_reg_val     2    2[COMMON] unsigned short 
  1296 ;; Return value:  Size  Location     Type
  1297 ;;                  2    0[COMMON] unsigned short 
  1298 ;; Registers used:
  1299 ;;		wreg
  1300 ;; Tracked objects:
  1301 ;;		On entry : 0/0
  1302 ;;		On exit  : 0/0
  1303 ;;		Unchanged: 0/0
  1304 ;; Data sizes:     COMMON   BANK0   BANK1   BANK3   BANK2
  1305 ;;      Params:         2       0       0       0       0
  1306 ;;      Locals:         2       0       0       0       0
  1307 ;;      Temps:          0       0       0       0       0
  1308 ;;      Totals:         4       0       0       0       0
  1309 ;;Total ram usage:        4 bytes
  1310 ;; Hardware stack levels used: 1
  1311 ;; This function calls:
  1312 ;;		Nothing
  1313 ;; This function is called by:
  1314 ;;		_main
  1315 ;; This function uses a non-reentrant model
  1316 ;;
  1317                           
  1318  0CF6                     _read_adc:	
  1319                           ;psect for function _read_adc
  1320                           
  1321  0CF6                     l1723:	
  1322                           ;incstack = 0
  1323                           ; Regs used in _read_adc: [wreg]
  1324                           
  1325                           
  1326                           ;adc.c: 14:     unsigned short adc_reg_val;;adc.c: 17:     GO = 1;
  1327  0CF6  1283               	bcf	3,5	;RP0=0, select bank0
  1328  0CF7  1303               	bcf	3,6	;RP1=0, select bank0
  1329  0CF8  151F               	bsf	31,2	;volatile
  1330  0CF9                     l45:	
  1331                           ;adc.c: 20:     while (nDONE);
  1332                           
  1333  0CF9  191F               	btfsc	31,2	;volatile
  1334  0CFA  2CFC               	goto	u1741
  1335  0CFB  2CFD               	goto	u1740
  1336  0CFC                     u1741:
  1337  0CFC  2CF9               	goto	l45
  1338  0CFD                     u1740:
  1339  0CFD                     l1725:
  1340                           
  1341                           ;adc.c: 22:     adc_reg_val = (ADRESH << 8) | ADRESL;
  1342  0CFD  081E               	movf	30,w	;volatile
  1343  0CFE  00F3               	movwf	read_adc@adc_reg_val+1
  1344  0CFF  1683               	bsf	3,5	;RP0=1, select bank1
  1345  0D00  1303               	bcf	3,6	;RP1=0, select bank1
  1346  0D01  081E               	movf	30,w	;volatile
  1347  0D02  00F2               	movwf	read_adc@adc_reg_val
  1348                           
  1349                           ;adc.c: 24:     return adc_reg_val;
  1350  0D03  0873               	movf	read_adc@adc_reg_val+1,w
  1351  0D04  00F1               	movwf	?_read_adc+1
  1352  0D05  0872               	movf	read_adc@adc_reg_val,w
  1353  0D06  00F0               	movwf	?_read_adc
  1354  0D07                     l48:
  1355  0D07  0008               	return
  1356  0D08                     __end_of_read_adc:
  1357                           
  1358                           	psect	text2
  1359  0003                     __ptext2:	
  1360 ;; *************** function _init_config *****************
  1361 ;; Defined at:
  1362 ;;		line 12 in file "main.c"
  1363 ;; Parameters:    Size  Location     Type
  1364 ;;		None
  1365 ;; Auto vars:     Size  Location     Type
  1366 ;;		None
  1367 ;; Return value:  Size  Location     Type
  1368 ;;                  1    wreg      void 
  1369 ;; Registers used:
  1370 ;;		wreg, status,2, status,0, pclath, cstack
  1371 ;; Tracked objects:
  1372 ;;		On entry : 0/0
  1373 ;;		On exit  : 0/0
  1374 ;;		Unchanged: 0/0
  1375 ;; Data sizes:     COMMON   BANK0   BANK1   BANK3   BANK2
  1376 ;;      Params:         0       0       0       0       0
  1377 ;;      Locals:         0       0       0       0       0
  1378 ;;      Temps:          0       0       0       0       0
  1379 ;;      Totals:         0       0       0       0       0
  1380 ;;Total ram usage:        0 bytes
  1381 ;; Hardware stack levels used: 1
  1382 ;; Hardware stack levels required when called: 3
  1383 ;; This function calls:
  1384 ;;		_init_adc
  1385 ;;		_init_clcd
  1386 ;;		_init_i2c
  1387 ;; This function is called by:
  1388 ;;		_main
  1389 ;; This function uses a non-reentrant model
  1390 ;;
  1391                           
  1392  0003                     _init_config:	
  1393                           ;psect for function _init_config
  1394                           
  1395  0003                     l1717:	
  1396                           ;incstack = 0
  1397                           ; Regs used in _init_config: [wreg+status,2+status,0+pclath+cstack]
  1398                           
  1399                           
  1400                           ;main.c: 15: void main(void) {
  1401  0003  120A  158A  24CD  120A  118A  	fcall	_init_clcd
  1402  0008                     l1719:
  1403                           
  1404                           ;main.c: 19:     unsigned char control_flag = 1;
  1405  0008  120A  158A  249E  120A  118A  	fcall	_init_adc
  1406  000D                     l1721:
  1407                           
  1408                           ;main.c: 23:     while(1)
  1409  000D  3000               	movlw	0
  1410  000E  1283               	bcf	3,5	;RP0=0, select bank0
  1411  000F  1303               	bcf	3,6	;RP1=0, select bank0
  1412  0010  00A3               	movwf	init_i2c@baud+3
  1413  0011  3001               	movlw	1
  1414  0012  00A2               	movwf	init_i2c@baud+2
  1415  0013  3086               	movlw	134
  1416  0014  00A1               	movwf	init_i2c@baud+1
  1417  0015  30A0               	movlw	160
  1418  0016  00A0               	movwf	init_i2c@baud
  1419  0017  120A  118A  201D  120A  118A  	fcall	_init_i2c
  1420  001C                     l13:
  1421  001C  0008               	return
  1422  001D                     __end_of_init_config:
  1423                           
  1424                           	psect	text3
  1425  001D                     __ptext3:	
  1426 ;; *************** function _init_i2c *****************
  1427 ;; Defined at:
  1428 ;;		line 4 in file "i2c.c"
  1429 ;; Parameters:    Size  Location     Type
  1430 ;;  baud            4    0[BANK0 ] unsigned long 
  1431 ;; Auto vars:     Size  Location     Type
  1432 ;;		None
  1433 ;; Return value:  Size  Location     Type
  1434 ;;                  1    wreg      void 
  1435 ;; Registers used:
  1436 ;;		wreg, status,2, status,0, pclath, cstack
  1437 ;; Tracked objects:
  1438 ;;		On entry : 0/0
  1439 ;;		On exit  : 0/0
  1440 ;;		Unchanged: 0/0
  1441 ;; Data sizes:     COMMON   BANK0   BANK1   BANK3   BANK2
  1442 ;;      Params:         0       4       0       0       0
  1443 ;;      Locals:         0       0       0       0       0
  1444 ;;      Temps:          0       4       0       0       0
  1445 ;;      Totals:         0       8       0       0       0
  1446 ;;Total ram usage:        8 bytes
  1447 ;; Hardware stack levels used: 1
  1448 ;; Hardware stack levels required when called: 1
  1449 ;; This function calls:
  1450 ;;		___lldiv
  1451 ;; This function is called by:
  1452 ;;		_init_config
  1453 ;; This function uses a non-reentrant model
  1454 ;;
  1455                           
  1456  001D                     _init_i2c:	
  1457                           ;psect for function _init_i2c
  1458                           
  1459  001D                     l1605:	
  1460                           ;incstack = 0
  1461                           ; Regs used in _init_i2c: [wreg+status,2+status,0+pclath+cstack]
  1462                           
  1463                           
  1464                           ;i2c.c: 4: void init_i2c(unsigned long baud);i2c.c: 5: {;i2c.c: 7:     SSPM3 = 1;
  1465  001D  1283               	bcf	3,5	;RP0=0, select bank0
  1466  001E  1303               	bcf	3,6	;RP1=0, select bank0
  1467  001F  1594               	bsf	20,3	;volatile
  1468  0020                     l1607:
  1469                           
  1470                           ;i2c.c: 10:     SSPADD = (unsigned char)(20000000 / (4 * baud)) - 1;
  1471  0020  0820               	movf	init_i2c@baud,w
  1472  0021  00A4               	movwf	??_init_i2c
  1473  0022  0821               	movf	init_i2c@baud+1,w
  1474  0023  00A5               	movwf	??_init_i2c+1
  1475  0024  0822               	movf	init_i2c@baud+2,w
  1476  0025  00A6               	movwf	??_init_i2c+2
  1477  0026  0823               	movf	init_i2c@baud+3,w
  1478  0027  00A7               	movwf	??_init_i2c+3
  1479  0028  3002               	movlw	2
  1480  0029                     u1505:
  1481  0029  1003               	clrc
  1482  002A  0DA4               	rlf	??_init_i2c,f
  1483  002B  0DA5               	rlf	??_init_i2c+1,f
  1484  002C  0DA6               	rlf	??_init_i2c+2,f
  1485  002D  0DA7               	rlf	??_init_i2c+3,f
  1486  002E                     u1500:
  1487  002E  3EFF               	addlw	-1
  1488  002F  1D03               	skipz
  1489  0030  2829               	goto	u1505
  1490  0031  0827               	movf	??_init_i2c+3,w
  1491  0032  00F3               	movwf	___lldiv@divisor+3
  1492  0033  0826               	movf	??_init_i2c+2,w
  1493  0034  00F2               	movwf	___lldiv@divisor+2
  1494  0035  0825               	movf	??_init_i2c+1,w
  1495  0036  00F1               	movwf	___lldiv@divisor+1
  1496  0037  0824               	movf	??_init_i2c,w
  1497  0038  00F0               	movwf	___lldiv@divisor
  1498  0039  3001               	movlw	1
  1499  003A  00F7               	movwf	___lldiv@dividend+3
  1500  003B  3031               	movlw	49
  1501  003C  00F6               	movwf	___lldiv@dividend+2
  1502  003D  302D               	movlw	45
  1503  003E  00F5               	movwf	___lldiv@dividend+1
  1504  003F  3000               	movlw	0
  1505  0040  00F4               	movwf	___lldiv@dividend
  1506  0041  120A  158A  2733  120A  118A  	fcall	___lldiv
  1507  0046  0870               	movf	?___lldiv,w
  1508  0047  3EFF               	addlw	255
  1509  0048  1683               	bsf	3,5	;RP0=1, select bank1
  1510  0049  1303               	bcf	3,6	;RP1=0, select bank1
  1511  004A  0093               	movwf	19	;volatile
  1512  004B                     l1609:
  1513                           
  1514                           ;i2c.c: 13:     SSPEN = 1;
  1515  004B  1283               	bcf	3,5	;RP0=0, select bank0
  1516  004C  1303               	bcf	3,6	;RP1=0, select bank0
  1517  004D  1694               	bsf	20,5	;volatile
  1518  004E                     l132:
  1519  004E  0008               	return
  1520  004F                     __end_of_init_i2c:
  1521                           
  1522                           	psect	text4
  1523  0F33                     __ptext4:	
  1524 ;; *************** function ___lldiv *****************
  1525 ;; Defined at:
  1526 ;;		line 5 in file "C:\Program Files\Microchip\xc8\v2.36\pic\sources\c90\common\__lldiv.c"
  1527 ;; Parameters:    Size  Location     Type
  1528 ;;  divisor         4    0[COMMON] unsigned long 
  1529 ;;  dividend        4    4[COMMON] unsigned long 
  1530 ;; Auto vars:     Size  Location     Type
  1531 ;;  quotient        4    9[COMMON] unsigned long 
  1532 ;;  counter         1   13[COMMON] unsigned char 
  1533 ;; Return value:  Size  Location     Type
  1534 ;;                  4    0[COMMON] unsigned long 
  1535 ;; Registers used:
  1536 ;;		wreg, status,2, status,0
  1537 ;; Tracked objects:
  1538 ;;		On entry : 0/0
  1539 ;;		On exit  : 0/0
  1540 ;;		Unchanged: 0/0
  1541 ;; Data sizes:     COMMON   BANK0   BANK1   BANK3   BANK2
  1542 ;;      Params:         8       0       0       0       0
  1543 ;;      Locals:         5       0       0       0       0
  1544 ;;      Temps:          1       0       0       0       0
  1545 ;;      Totals:        14       0       0       0       0
  1546 ;;Total ram usage:       14 bytes
  1547 ;; Hardware stack levels used: 1
  1548 ;; This function calls:
  1549 ;;		Nothing
  1550 ;; This function is called by:
  1551 ;;		_init_i2c
  1552 ;; This function uses a non-reentrant model
  1553 ;;
  1554                           
  1555  0F33                     ___lldiv:	
  1556                           ;psect for function ___lldiv
  1557                           
  1558  0F33                     l1571:	
  1559                           ;incstack = 0
  1560                           ; Regs used in ___lldiv: [wreg+status,2+status,0]
  1561                           
  1562  0F33  3000               	movlw	0
  1563  0F34  00FC               	movwf	___lldiv@quotient+3
  1564  0F35  3000               	movlw	0
  1565  0F36  00FB               	movwf	___lldiv@quotient+2
  1566  0F37  3000               	movlw	0
  1567  0F38  00FA               	movwf	___lldiv@quotient+1
  1568  0F39  3000               	movlw	0
  1569  0F3A  00F9               	movwf	___lldiv@quotient
  1570  0F3B  0873               	movf	___lldiv@divisor+3,w
  1571  0F3C  0472               	iorwf	___lldiv@divisor+2,w
  1572  0F3D  0471               	iorwf	___lldiv@divisor+1,w
  1573  0F3E  0470               	iorwf	___lldiv@divisor,w
  1574  0F3F  1903               	skipnz
  1575  0F40  2F42               	goto	u1431
  1576  0F41  2F43               	goto	u1430
  1577  0F42                     u1431:
  1578  0F42  2F90               	goto	l1591
  1579  0F43                     u1430:
  1580  0F43                     l1573:
  1581  0F43  01FD               	clrf	___lldiv@counter
  1582  0F44  0AFD               	incf	___lldiv@counter,f
  1583  0F45  2F53               	goto	l1577
  1584  0F46                     l1575:
  1585  0F46  3001               	movlw	1
  1586  0F47  00F8               	movwf	??___lldiv
  1587  0F48                     u1445:
  1588  0F48  1003               	clrc
  1589  0F49  0DF0               	rlf	___lldiv@divisor,f
  1590  0F4A  0DF1               	rlf	___lldiv@divisor+1,f
  1591  0F4B  0DF2               	rlf	___lldiv@divisor+2,f
  1592  0F4C  0DF3               	rlf	___lldiv@divisor+3,f
  1593  0F4D  0BF8               	decfsz	??___lldiv,f
  1594  0F4E  2F48               	goto	u1445
  1595  0F4F  3001               	movlw	1
  1596  0F50  00F8               	movwf	??___lldiv
  1597  0F51  0878               	movf	??___lldiv,w
  1598  0F52  07FD               	addwf	___lldiv@counter,f
  1599  0F53                     l1577:
  1600  0F53  1FF3               	btfss	___lldiv@divisor+3,7
  1601  0F54  2F56               	goto	u1451
  1602  0F55  2F57               	goto	u1450
  1603  0F56                     u1451:
  1604  0F56  2F46               	goto	l1575
  1605  0F57                     u1450:
  1606  0F57                     l1579:
  1607  0F57  3001               	movlw	1
  1608  0F58  00F8               	movwf	??___lldiv
  1609  0F59                     u1465:
  1610  0F59  1003               	clrc
  1611  0F5A  0DF9               	rlf	___lldiv@quotient,f
  1612  0F5B  0DFA               	rlf	___lldiv@quotient+1,f
  1613  0F5C  0DFB               	rlf	___lldiv@quotient+2,f
  1614  0F5D  0DFC               	rlf	___lldiv@quotient+3,f
  1615  0F5E  0BF8               	decfsz	??___lldiv,f
  1616  0F5F  2F59               	goto	u1465
  1617  0F60                     l1581:
  1618  0F60  0873               	movf	___lldiv@divisor+3,w
  1619  0F61  0277               	subwf	___lldiv@dividend+3,w
  1620  0F62  1D03               	skipz
  1621  0F63  2F6E               	goto	u1475
  1622  0F64  0872               	movf	___lldiv@divisor+2,w
  1623  0F65  0276               	subwf	___lldiv@dividend+2,w
  1624  0F66  1D03               	skipz
  1625  0F67  2F6E               	goto	u1475
  1626  0F68  0871               	movf	___lldiv@divisor+1,w
  1627  0F69  0275               	subwf	___lldiv@dividend+1,w
  1628  0F6A  1D03               	skipz
  1629  0F6B  2F6E               	goto	u1475
  1630  0F6C  0870               	movf	___lldiv@divisor,w
  1631  0F6D  0274               	subwf	___lldiv@dividend,w
  1632  0F6E                     u1475:
  1633  0F6E  1C03               	skipc
  1634  0F6F  2F71               	goto	u1471
  1635  0F70  2F72               	goto	u1470
  1636  0F71                     u1471:
  1637  0F71  2F81               	goto	l1587
  1638  0F72                     u1470:
  1639  0F72                     l1583:
  1640  0F72  0870               	movf	___lldiv@divisor,w
  1641  0F73  02F4               	subwf	___lldiv@dividend,f
  1642  0F74  0871               	movf	___lldiv@divisor+1,w
  1643  0F75  1C03               	skipc
  1644  0F76  0F71               	incfsz	___lldiv@divisor+1,w
  1645  0F77  02F5               	subwf	___lldiv@dividend+1,f
  1646  0F78  0872               	movf	___lldiv@divisor+2,w
  1647  0F79  1C03               	skipc
  1648  0F7A  0F72               	incfsz	___lldiv@divisor+2,w
  1649  0F7B  02F6               	subwf	___lldiv@dividend+2,f
  1650  0F7C  0873               	movf	___lldiv@divisor+3,w
  1651  0F7D  1C03               	skipc
  1652  0F7E  0F73               	incfsz	___lldiv@divisor+3,w
  1653  0F7F  02F7               	subwf	___lldiv@dividend+3,f
  1654  0F80                     l1585:
  1655  0F80  1479               	bsf	___lldiv@quotient,0
  1656  0F81                     l1587:
  1657  0F81  3001               	movlw	1
  1658  0F82                     u1485:
  1659  0F82  1003               	clrc
  1660  0F83  0CF3               	rrf	___lldiv@divisor+3,f
  1661  0F84  0CF2               	rrf	___lldiv@divisor+2,f
  1662  0F85  0CF1               	rrf	___lldiv@divisor+1,f
  1663  0F86  0CF0               	rrf	___lldiv@divisor,f
  1664  0F87  3EFF               	addlw	-1
  1665  0F88  1D03               	skipz
  1666  0F89  2F82               	goto	u1485
  1667  0F8A                     l1589:
  1668  0F8A  3001               	movlw	1
  1669  0F8B  02FD               	subwf	___lldiv@counter,f
  1670  0F8C  1D03               	btfss	3,2
  1671  0F8D  2F8F               	goto	u1491
  1672  0F8E  2F90               	goto	u1490
  1673  0F8F                     u1491:
  1674  0F8F  2F57               	goto	l1579
  1675  0F90                     u1490:
  1676  0F90                     l1591:
  1677  0F90  087C               	movf	___lldiv@quotient+3,w
  1678  0F91  00F3               	movwf	?___lldiv+3
  1679  0F92  087B               	movf	___lldiv@quotient+2,w
  1680  0F93  00F2               	movwf	?___lldiv+2
  1681  0F94  087A               	movf	___lldiv@quotient+1,w
  1682  0F95  00F1               	movwf	?___lldiv+1
  1683  0F96  0879               	movf	___lldiv@quotient,w
  1684  0F97  00F0               	movwf	?___lldiv
  1685  0F98                     l313:
  1686  0F98  0008               	return
  1687  0F99                     __end_of___lldiv:
  1688                           
  1689                           	psect	text5
  1690  0CCD                     __ptext5:	
  1691 ;; *************** function _init_clcd *****************
  1692 ;; Defined at:
  1693 ;;		line 39 in file "clcd.c"
  1694 ;; Parameters:    Size  Location     Type
  1695 ;;		None
  1696 ;; Auto vars:     Size  Location     Type
  1697 ;;		None
  1698 ;; Return value:  Size  Location     Type
  1699 ;;                  1    wreg      void 
  1700 ;; Registers used:
  1701 ;;		wreg, status,2, status,0, pclath, cstack
  1702 ;; Tracked objects:
  1703 ;;		On entry : 0/0
  1704 ;;		On exit  : 0/0
  1705 ;;		Unchanged: 0/0
  1706 ;; Data sizes:     COMMON   BANK0   BANK1   BANK3   BANK2
  1707 ;;      Params:         0       0       0       0       0
  1708 ;;      Locals:         0       0       0       0       0
  1709 ;;      Temps:          0       0       0       0       0
  1710 ;;      Totals:         0       0       0       0       0
  1711 ;;Total ram usage:        0 bytes
  1712 ;; Hardware stack levels used: 1
  1713 ;; Hardware stack levels required when called: 2
  1714 ;; This function calls:
  1715 ;;		_init_display_controller
  1716 ;; This function is called by:
  1717 ;;		_init_config
  1718 ;; This function uses a non-reentrant model
  1719 ;;
  1720                           
  1721  0CCD                     _init_clcd:	
  1722                           ;psect for function _init_clcd
  1723                           
  1724  0CCD                     l1595:	
  1725                           ;incstack = 0
  1726                           ; Regs used in _init_clcd: [wreg+status,2+status,0+pclath+cstack]
  1727                           
  1728                           
  1729                           ;clcd.c: 42:     TRISD = 0x00;
  1730  0CCD  1683               	bsf	3,5	;RP0=1, select bank1
  1731  0CCE  1303               	bcf	3,6	;RP1=0, select bank1
  1732  0CCF  0188               	clrf	8	;volatile
  1733  0CD0                     l1597:
  1734                           
  1735                           ;clcd.c: 45:     TRISE2 = 0;
  1736  0CD0  1109               	bcf	9,2	;volatile
  1737  0CD1                     l1599:
  1738                           
  1739                           ;clcd.c: 46:     TRISE1 = 0;
  1740  0CD1  1089               	bcf	9,1	;volatile
  1741  0CD2                     l1601:
  1742                           
  1743                           ;clcd.c: 48:     init_display_controller();
  1744  0CD2  120A  158A  25C7  120A  158A  	fcall	_init_display_controller
  1745  0CD7                     l71:
  1746  0CD7  0008               	return
  1747  0CD8                     __end_of_init_clcd:
  1748                           
  1749                           	psect	text6
  1750  0DC7                     __ptext6:	
  1751 ;; *************** function _init_display_controller *****************
  1752 ;; Defined at:
  1753 ;;		line 16 in file "clcd.c"
  1754 ;; Parameters:    Size  Location     Type
  1755 ;;		None
  1756 ;; Auto vars:     Size  Location     Type
  1757 ;;		None
  1758 ;; Return value:  Size  Location     Type
  1759 ;;                  1    wreg      void 
  1760 ;; Registers used:
  1761 ;;		wreg, status,2, status,0, pclath, cstack
  1762 ;; Tracked objects:
  1763 ;;		On entry : 0/0
  1764 ;;		On exit  : 0/0
  1765 ;;		Unchanged: 0/0
  1766 ;; Data sizes:     COMMON   BANK0   BANK1   BANK3   BANK2
  1767 ;;      Params:         0       0       0       0       0
  1768 ;;      Locals:         0       0       0       0       0
  1769 ;;      Temps:          2       0       0       0       0
  1770 ;;      Totals:         2       0       0       0       0
  1771 ;;Total ram usage:        2 bytes
  1772 ;; Hardware stack levels used: 1
  1773 ;; Hardware stack levels required when called: 1
  1774 ;; This function calls:
  1775 ;;		_clcd_write
  1776 ;; This function is called by:
  1777 ;;		_init_clcd
  1778 ;; This function uses a non-reentrant model
  1779 ;;
  1780                           
  1781  0DC7                     _init_display_controller:	
  1782                           ;psect for function _init_display_controller
  1783                           
  1784  0DC7                     l1535:	
  1785                           ;incstack = 0
  1786                           ; Regs used in _init_display_controller: [wreg+status,2+status,0+pclath+cstack]
  1787                           
  1788                           
  1789                           ;clcd.c: 19:     _delay((unsigned long)((30)*(20000000/4000.0)));
  1790  0DC7  30C3               	movlw	195
  1791  0DC8  00F5               	movwf	??_init_display_controller+1
  1792  0DC9  30CD               	movlw	205
  1793  0DCA  00F4               	movwf	??_init_display_controller
  1794  0DCB                     u2697:
  1795  0DCB  0BF4               	decfsz	??_init_display_controller,f
  1796  0DCC  2DCB               	goto	u2697
  1797  0DCD  0BF5               	decfsz	??_init_display_controller+1,f
  1798  0DCE  2DCB               	goto	u2697
  1799  0DCF                     l1537:
  1800                           
  1801                           ;clcd.c: 22:     clcd_write(0x33, 0);
  1802  0DCF  01F0               	clrf	clcd_write@mode
  1803  0DD0  3033               	movlw	51
  1804  0DD1  120A  158A  2508  120A  158A  	fcall	_clcd_write
  1805  0DD6                     l1539:
  1806                           
  1807                           ;clcd.c: 23:      _delay((unsigned long)((4100)*(20000000/4000000.0)));
  1808  0DD6  301B               	movlw	27
  1809  0DD7  00F5               	movwf	??_init_display_controller+1
  1810  0DD8  309E               	movlw	158
  1811  0DD9  00F4               	movwf	??_init_display_controller
  1812  0DDA                     u2707:
  1813  0DDA  0BF4               	decfsz	??_init_display_controller,f
  1814  0DDB  2DDA               	goto	u2707
  1815  0DDC  0BF5               	decfsz	??_init_display_controller+1,f
  1816  0DDD  2DDA               	goto	u2707
  1817  0DDE  0000               	nop
  1818                           
  1819                           ;clcd.c: 24:      clcd_write(0x33, 0);
  1820  0DDF  01F0               	clrf	clcd_write@mode
  1821  0DE0  3033               	movlw	51
  1822  0DE1  120A  158A  2508  120A  158A  	fcall	_clcd_write
  1823  0DE6                     l1541:
  1824                           
  1825                           ;clcd.c: 25:     _delay((unsigned long)((100)*(20000000/4000000.0)));
  1826  0DE6  30A6               	movlw	166
  1827  0DE7  00F4               	movwf	??_init_display_controller
  1828  0DE8                     u2717:
  1829  0DE8  0BF4               	decfsz	??_init_display_controller,f
  1830  0DE9  2DE8               	goto	u2717
  1831  0DEA  0000               	nop
  1832  0DEB                     l1543:
  1833                           
  1834                           ;clcd.c: 26:      clcd_write(0x33, 0);
  1835  0DEB  01F0               	clrf	clcd_write@mode
  1836  0DEC  3033               	movlw	51
  1837  0DED  120A  158A  2508  120A  158A  	fcall	_clcd_write
  1838  0DF2                     l1545:
  1839                           
  1840                           ;clcd.c: 27:      _delay((unsigned long)((1)*(20000000/4000000.0)));
  1841  0DF2  2DF3               	nop2	;2 cycle nop
  1842  0DF3  2DF4               	nop2	;2 cycle nop
  1843  0DF4  0000               	nop
  1844  0DF5                     l1547:
  1845                           
  1846                           ;clcd.c: 29:     clcd_write(0x38, 0);
  1847  0DF5  01F0               	clrf	clcd_write@mode
  1848  0DF6  3038               	movlw	56
  1849  0DF7  120A  158A  2508  120A  158A  	fcall	_clcd_write
  1850  0DFC                     l1549:
  1851                           
  1852                           ;clcd.c: 30:      _delay((unsigned long)((100)*(20000000/4000000.0)));
  1853  0DFC  30A6               	movlw	166
  1854  0DFD  00F4               	movwf	??_init_display_controller
  1855  0DFE                     u2727:
  1856  0DFE  0BF4               	decfsz	??_init_display_controller,f
  1857  0DFF  2DFE               	goto	u2727
  1858  0E00  0000               	nop
  1859                           
  1860                           ;clcd.c: 32:      clcd_write(0x01, 0);
  1861  0E01  01F0               	clrf	clcd_write@mode
  1862  0E02  3001               	movlw	1
  1863  0E03  120A  158A  2508  120A  158A  	fcall	_clcd_write
  1864  0E08                     l1551:
  1865                           
  1866                           ;clcd.c: 33:     _delay((unsigned long)((100)*(20000000/4000000.0)));
  1867  0E08  30A6               	movlw	166
  1868  0E09  00F4               	movwf	??_init_display_controller
  1869  0E0A                     u2737:
  1870  0E0A  0BF4               	decfsz	??_init_display_controller,f
  1871  0E0B  2E0A               	goto	u2737
  1872  0E0C  0000               	nop
  1873  0E0D                     l1553:
  1874                           
  1875                           ;clcd.c: 35:     clcd_write(0x0C, 0);
  1876  0E0D  01F0               	clrf	clcd_write@mode
  1877  0E0E  300C               	movlw	12
  1878  0E0F  120A  158A  2508  120A  158A  	fcall	_clcd_write
  1879                           
  1880                           ;clcd.c: 36:     _delay((unsigned long)((100)*(20000000/4000000.0)));
  1881  0E14  30A6               	movlw	166
  1882  0E15  00F4               	movwf	??_init_display_controller
  1883  0E16                     u2747:
  1884  0E16  0BF4               	decfsz	??_init_display_controller,f
  1885  0E17  2E16               	goto	u2747
  1886  0E18  0000               	nop
  1887  0E19                     l68:
  1888  0E19  0008               	return
  1889  0E1A                     __end_of_init_display_controller:
  1890                           
  1891                           	psect	text7
  1892  0C9E                     __ptext7:	
  1893 ;; *************** function _init_adc *****************
  1894 ;; Defined at:
  1895 ;;		line 3 in file "adc.c"
  1896 ;; Parameters:    Size  Location     Type
  1897 ;;		None
  1898 ;; Auto vars:     Size  Location     Type
  1899 ;;		None
  1900 ;; Return value:  Size  Location     Type
  1901 ;;                  1    wreg      void 
  1902 ;; Registers used:
  1903 ;;		None
  1904 ;; Tracked objects:
  1905 ;;		On entry : 0/0
  1906 ;;		On exit  : 0/0
  1907 ;;		Unchanged: 0/0
  1908 ;; Data sizes:     COMMON   BANK0   BANK1   BANK3   BANK2
  1909 ;;      Params:         0       0       0       0       0
  1910 ;;      Locals:         0       0       0       0       0
  1911 ;;      Temps:          0       0       0       0       0
  1912 ;;      Totals:         0       0       0       0       0
  1913 ;;Total ram usage:        0 bytes
  1914 ;; Hardware stack levels used: 1
  1915 ;; This function calls:
  1916 ;;		Nothing
  1917 ;; This function is called by:
  1918 ;;		_init_config
  1919 ;; This function uses a non-reentrant model
  1920 ;;
  1921                           
  1922  0C9E                     _init_adc:	
  1923                           ;psect for function _init_adc
  1924                           
  1925  0C9E                     l1603:	
  1926                           ;incstack = 0
  1927                           ; Regs used in _init_adc: []
  1928                           
  1929                           
  1930                           ;adc.c: 6:     ADFM = 1;
  1931  0C9E  1683               	bsf	3,5	;RP0=1, select bank1
  1932  0C9F  1303               	bcf	3,6	;RP1=0, select bank1
  1933  0CA0  179F               	bsf	31,7	;volatile
  1934                           
  1935                           ;adc.c: 9:     ADON = 1;
  1936  0CA1  1283               	bcf	3,5	;RP0=0, select bank0
  1937  0CA2  1303               	bcf	3,6	;RP1=0, select bank0
  1938  0CA3  141F               	bsf	31,0	;volatile
  1939  0CA4                     l42:
  1940  0CA4  0008               	return
  1941  0CA5                     __end_of_init_adc:
  1942                           
  1943                           	psect	text8
  1944  004F                     __ptext8:	
  1945 ;; *************** function _display_dashboard *****************
  1946 ;; Defined at:
  1947 ;;		line 49 in file "car_black_box_def.c"
  1948 ;; Parameters:    Size  Location     Type
  1949 ;;  event           1    wreg     PTR unsigned char 
  1950 ;;		 -> main@event(3), 
  1951 ;;  speed           1   12[COMMON] unsigned char 
  1952 ;; Auto vars:     Size  Location     Type
  1953 ;;  event           1   13[COMMON] PTR unsigned char 
  1954 ;;		 -> main@event(3), 
  1955 ;; Return value:  Size  Location     Type
  1956 ;;                  1    wreg      void 
  1957 ;; Registers used:
  1958 ;;		wreg, fsr0l, fsr0h, status,2, status,0, pclath, cstack
  1959 ;; Tracked objects:
  1960 ;;		On entry : 0/0
  1961 ;;		On exit  : 0/0
  1962 ;;		Unchanged: 0/0
  1963 ;; Data sizes:     COMMON   BANK0   BANK1   BANK3   BANK2
  1964 ;;      Params:         1       0       0       0       0
  1965 ;;      Locals:         1       0       0       0       0
  1966 ;;      Temps:          0       3       0       0       0
  1967 ;;      Totals:         2       3       0       0       0
  1968 ;;Total ram usage:        5 bytes
  1969 ;; Hardware stack levels used: 1
  1970 ;; Hardware stack levels required when called: 6
  1971 ;; This function calls:
  1972 ;;		___awdiv
  1973 ;;		___awmod
  1974 ;;		_clcd_print
  1975 ;;		_clcd_putch
  1976 ;;		_display_time
  1977 ;; This function is called by:
  1978 ;;		_main
  1979 ;; This function uses a non-reentrant model
  1980 ;;
  1981                           
  1982  004F                     _display_dashboard:	
  1983                           ;psect for function _display_dashboard
  1984                           
  1985                           
  1986                           ;incstack = 0
  1987                           ; Regs used in _display_dashboard: [wreg-fsr0h+status,2+status,0+pclath+cstack]
  1988                           ;display_dashboard@event stored from wreg
  1989  004F  00FD               	movwf	display_dashboard@event
  1990  0050                     l1729:
  1991                           
  1992                           ;car_black_box_def.c: 49: void display_dashboard(char* event,unsigned char speed);car_bl
      +                          ack_box_def.c: 50: {;car_black_box_def.c: 52:     clcd_print("  TIME     E  SP", (0x80 +
      +                           0));
  1993  0050  3080               	movlw	128
  1994  0051  1283               	bcf	3,5	;RP0=0, select bank0
  1995  0052  1303               	bcf	3,6	;RP1=0, select bank0
  1996  0053  00A0               	movwf	??_display_dashboard
  1997  0054  0820               	movf	??_display_dashboard,w
  1998  0055  00F4               	movwf	clcd_print@addr
  1999  0056  3001               	movlw	(low ((STR_1-__stringbase)| (0+32768)))& (0+255)
  2000  0057  120A  158A  2572  120A  118A  	fcall	_clcd_print
  2001  005C                     l1731:
  2002                           
  2003                           ;car_black_box_def.c: 55:     display_time();
  2004  005C  120A  158A  26D1  120A  118A  	fcall	_display_time
  2005  0061                     l1733:
  2006                           
  2007                           ;car_black_box_def.c: 59:     clcd_putch(event[0],(0xC0 + 11));
  2008  0061  30CB               	movlw	203
  2009  0062  1283               	bcf	3,5	;RP0=0, select bank0
  2010  0063  1303               	bcf	3,6	;RP1=0, select bank0
  2011  0064  00A0               	movwf	??_display_dashboard
  2012  0065  0820               	movf	??_display_dashboard,w
  2013  0066  00F9               	movwf	clcd_putch@addr
  2014  0067  087D               	movf	display_dashboard@event,w
  2015  0068  0084               	movwf	4
  2016  0069  1383               	bcf	3,7	;select IRP bank0
  2017  006A  0800               	movf	0,w
  2018  006B  120A  158A  24E5  120A  118A  	fcall	_clcd_putch
  2019  0070                     l1735:
  2020                           
  2021                           ;car_black_box_def.c: 60:     clcd_putch(event[1],(0xC0 + 12));
  2022  0070  30CC               	movlw	204
  2023  0071  1283               	bcf	3,5	;RP0=0, select bank0
  2024  0072  1303               	bcf	3,6	;RP1=0, select bank0
  2025  0073  00A0               	movwf	??_display_dashboard
  2026  0074  0820               	movf	??_display_dashboard,w
  2027  0075  00F9               	movwf	clcd_putch@addr
  2028  0076  0A7D               	incf	display_dashboard@event,w
  2029  0077  0084               	movwf	4
  2030  0078  1383               	bcf	3,7	;select IRP bank0
  2031  0079  0800               	movf	0,w
  2032  007A  120A  158A  24E5  120A  118A  	fcall	_clcd_putch
  2033  007F                     l1737:
  2034                           
  2035                           ;car_black_box_def.c: 61:     clcd_putch(event[2],(0xC0 + 13));
  2036  007F  30CD               	movlw	205
  2037  0080  1283               	bcf	3,5	;RP0=0, select bank0
  2038  0081  1303               	bcf	3,6	;RP1=0, select bank0
  2039  0082  00A0               	movwf	??_display_dashboard
  2040  0083  0820               	movf	??_display_dashboard,w
  2041  0084  00F9               	movwf	clcd_putch@addr
  2042  0085  087D               	movf	display_dashboard@event,w
  2043  0086  3E02               	addlw	2
  2044  0087  0084               	movwf	4
  2045  0088  1383               	bcf	3,7	;select IRP bank0
  2046  0089  0800               	movf	0,w
  2047  008A  120A  158A  24E5  120A  118A  	fcall	_clcd_putch
  2048                           
  2049                           ;car_black_box_def.c: 64:     clcd_putch((speed/10)+'0',(0xC0 + 14));
  2050  008F  30CE               	movlw	206
  2051  0090  1283               	bcf	3,5	;RP0=0, select bank0
  2052  0091  1303               	bcf	3,6	;RP1=0, select bank0
  2053  0092  00A0               	movwf	??_display_dashboard
  2054  0093  0820               	movf	??_display_dashboard,w
  2055  0094  00F9               	movwf	clcd_putch@addr
  2056  0095  300A               	movlw	10
  2057  0096  00F0               	movwf	___awdiv@divisor
  2058  0097  3000               	movlw	0
  2059  0098  00F1               	movwf	___awdiv@divisor+1
  2060  0099  087C               	movf	display_dashboard@speed,w
  2061  009A  00A1               	movwf	??_display_dashboard+1
  2062  009B  01A2               	clrf	??_display_dashboard+2
  2063  009C  0821               	movf	??_display_dashboard+1,w
  2064  009D  00F2               	movwf	___awdiv@dividend
  2065  009E  0822               	movf	??_display_dashboard+2,w
  2066  009F  00F3               	movwf	___awdiv@dividend+1
  2067  00A0  120A  158A  2799  120A  118A  	fcall	___awdiv
  2068  00A5  0870               	movf	?___awdiv,w
  2069  00A6  3E30               	addlw	48
  2070  00A7  120A  158A  24E5  120A  118A  	fcall	_clcd_putch
  2071                           
  2072                           ;car_black_box_def.c: 65:     clcd_putch((speed%10)+'0',(0xC0 + 15));
  2073  00AC  30CF               	movlw	207
  2074  00AD  1283               	bcf	3,5	;RP0=0, select bank0
  2075  00AE  1303               	bcf	3,6	;RP1=0, select bank0
  2076  00AF  00A0               	movwf	??_display_dashboard
  2077  00B0  0820               	movf	??_display_dashboard,w
  2078  00B1  00F9               	movwf	clcd_putch@addr
  2079  00B2  300A               	movlw	10
  2080  00B3  00F0               	movwf	___awmod@divisor
  2081  00B4  3000               	movlw	0
  2082  00B5  00F1               	movwf	___awmod@divisor+1
  2083  00B6  087C               	movf	display_dashboard@speed,w
  2084  00B7  00A1               	movwf	??_display_dashboard+1
  2085  00B8  01A2               	clrf	??_display_dashboard+2
  2086  00B9  0821               	movf	??_display_dashboard+1,w
  2087  00BA  00F2               	movwf	___awmod@dividend
  2088  00BB  0822               	movf	??_display_dashboard+2,w
  2089  00BC  00F3               	movwf	___awmod@dividend+1
  2090  00BD  120A  158A  261A  120A  118A  	fcall	___awmod
  2091  00C2  0870               	movf	?___awmod,w
  2092  00C3  3E30               	addlw	48
  2093  00C4  120A  158A  24E5  120A  118A  	fcall	_clcd_putch
  2094  00C9                     l191:
  2095  00C9  0008               	return
  2096  00CA                     __end_of_display_dashboard:
  2097                           
  2098                           	psect	text9
  2099  0ED1                     __ptext9:	
  2100 ;; *************** function _display_time *****************
  2101 ;; Defined at:
  2102 ;;		line 31 in file "car_black_box_def.c"
  2103 ;; Parameters:    Size  Location     Type
  2104 ;;		None
  2105 ;; Auto vars:     Size  Location     Type
  2106 ;;		None
  2107 ;; Return value:  Size  Location     Type
  2108 ;;                  1    wreg      void 
  2109 ;; Registers used:
  2110 ;;		wreg, status,2, status,0, pclath, cstack
  2111 ;; Tracked objects:
  2112 ;;		On entry : 0/0
  2113 ;;		On exit  : 0/0
  2114 ;;		Unchanged: 0/0
  2115 ;; Data sizes:     COMMON   BANK0   BANK1   BANK3   BANK2
  2116 ;;      Params:         0       0       0       0       0
  2117 ;;      Locals:         0       0       0       0       0
  2118 ;;      Temps:          1       0       0       0       0
  2119 ;;      Totals:         1       0       0       0       0
  2120 ;;Total ram usage:        1 bytes
  2121 ;; Hardware stack levels used: 1
  2122 ;; Hardware stack levels required when called: 5
  2123 ;; This function calls:
  2124 ;;		_clcd_putch
  2125 ;;		_get_time
  2126 ;; This function is called by:
  2127 ;;		_display_dashboard
  2128 ;; This function uses a non-reentrant model
  2129 ;;
  2130                           
  2131  0ED1                     _display_time:	
  2132                           ;psect for function _display_time
  2133                           
  2134  0ED1                     l1619:	
  2135                           ;incstack = 0
  2136                           ; Regs used in _display_time: [wreg+status,2+status,0+pclath+cstack]
  2137                           
  2138                           
  2139                           ;car_black_box_def.c: 33:     get_time();
  2140  0ED1  120A  158A  2673  120A  158A  	fcall	_get_time
  2141                           
  2142                           ;car_black_box_def.c: 36:     clcd_putch(time[0],(0xC0 + 2));
  2143  0ED6  30C2               	movlw	194
  2144  0ED7  00FB               	movwf	??_display_time
  2145  0ED8  087B               	movf	??_display_time,w
  2146  0ED9  00F9               	movwf	clcd_putch@addr
  2147  0EDA  1683               	bsf	3,5	;RP0=1, select bank1
  2148  0EDB  1303               	bcf	3,6	;RP1=0, select bank1
  2149  0EDC  0820               	movf	_time^(0+128),w
  2150  0EDD  120A  158A  24E5  120A  158A  	fcall	_clcd_putch
  2151                           
  2152                           ;car_black_box_def.c: 37:     clcd_putch(time[1],(0xC0 + 3));
  2153  0EE2  30C3               	movlw	195
  2154  0EE3  00FB               	movwf	??_display_time
  2155  0EE4  087B               	movf	??_display_time,w
  2156  0EE5  00F9               	movwf	clcd_putch@addr
  2157  0EE6  1683               	bsf	3,5	;RP0=1, select bank1
  2158  0EE7  1303               	bcf	3,6	;RP1=0, select bank1
  2159  0EE8  0821               	movf	(_time^(0+128)+1),w
  2160  0EE9  120A  158A  24E5  120A  158A  	fcall	_clcd_putch
  2161                           
  2162                           ;car_black_box_def.c: 38:     clcd_putch(':',(0xC0 + 4));
  2163  0EEE  30C4               	movlw	196
  2164  0EEF  00FB               	movwf	??_display_time
  2165  0EF0  087B               	movf	??_display_time,w
  2166  0EF1  00F9               	movwf	clcd_putch@addr
  2167  0EF2  303A               	movlw	58
  2168  0EF3  120A  158A  24E5  120A  158A  	fcall	_clcd_putch
  2169                           
  2170                           ;car_black_box_def.c: 40:     clcd_putch(time[2],(0xC0 + 5));
  2171  0EF8  30C5               	movlw	197
  2172  0EF9  00FB               	movwf	??_display_time
  2173  0EFA  087B               	movf	??_display_time,w
  2174  0EFB  00F9               	movwf	clcd_putch@addr
  2175  0EFC  1683               	bsf	3,5	;RP0=1, select bank1
  2176  0EFD  1303               	bcf	3,6	;RP1=0, select bank1
  2177  0EFE  0822               	movf	(_time^(0+128)+2),w
  2178  0EFF  120A  158A  24E5  120A  158A  	fcall	_clcd_putch
  2179                           
  2180                           ;car_black_box_def.c: 41:     clcd_putch(time[3],(0xC0 + 6));
  2181  0F04  30C6               	movlw	198
  2182  0F05  00FB               	movwf	??_display_time
  2183  0F06  087B               	movf	??_display_time,w
  2184  0F07  00F9               	movwf	clcd_putch@addr
  2185  0F08  1683               	bsf	3,5	;RP0=1, select bank1
  2186  0F09  1303               	bcf	3,6	;RP1=0, select bank1
  2187  0F0A  0823               	movf	(_time^(0+128)+3),w
  2188  0F0B  120A  158A  24E5  120A  158A  	fcall	_clcd_putch
  2189                           
  2190                           ;car_black_box_def.c: 42:     clcd_putch(':',(0xC0 + 7));
  2191  0F10  30C7               	movlw	199
  2192  0F11  00FB               	movwf	??_display_time
  2193  0F12  087B               	movf	??_display_time,w
  2194  0F13  00F9               	movwf	clcd_putch@addr
  2195  0F14  303A               	movlw	58
  2196  0F15  120A  158A  24E5  120A  158A  	fcall	_clcd_putch
  2197                           
  2198                           ;car_black_box_def.c: 44:     clcd_putch(time[4],(0xC0 + 8));
  2199  0F1A  30C8               	movlw	200
  2200  0F1B  00FB               	movwf	??_display_time
  2201  0F1C  087B               	movf	??_display_time,w
  2202  0F1D  00F9               	movwf	clcd_putch@addr
  2203  0F1E  1683               	bsf	3,5	;RP0=1, select bank1
  2204  0F1F  1303               	bcf	3,6	;RP1=0, select bank1
  2205  0F20  0824               	movf	(_time^(0+128)+4),w
  2206  0F21  120A  158A  24E5  120A  158A  	fcall	_clcd_putch
  2207                           
  2208                           ;car_black_box_def.c: 45:     clcd_putch(time[5],(0xC0 + 9));
  2209  0F26  30C9               	movlw	201
  2210  0F27  00FB               	movwf	??_display_time
  2211  0F28  087B               	movf	??_display_time,w
  2212  0F29  00F9               	movwf	clcd_putch@addr
  2213  0F2A  1683               	bsf	3,5	;RP0=1, select bank1
  2214  0F2B  1303               	bcf	3,6	;RP1=0, select bank1
  2215  0F2C  0825               	movf	(_time^(0+128)+5),w
  2216  0F2D  120A  158A  24E5  120A  158A  	fcall	_clcd_putch
  2217  0F32                     l188:
  2218  0F32  0008               	return
  2219  0F33                     __end_of_display_time:
  2220                           
  2221                           	psect	text10
  2222  0E73                     __ptext10:	
  2223 ;; *************** function _get_time *****************
  2224 ;; Defined at:
  2225 ;;		line 11 in file "car_black_box_def.c"
  2226 ;; Parameters:    Size  Location     Type
  2227 ;;		None
  2228 ;; Auto vars:     Size  Location     Type
  2229 ;;		None
  2230 ;; Return value:  Size  Location     Type
  2231 ;;                  1    wreg      void 
  2232 ;; Registers used:
  2233 ;;		wreg, status,2, status,0, pclath, cstack
  2234 ;; Tracked objects:
  2235 ;;		On entry : 0/0
  2236 ;;		On exit  : 0/0
  2237 ;;		Unchanged: 0/0
  2238 ;; Data sizes:     COMMON   BANK0   BANK1   BANK3   BANK2
  2239 ;;      Params:         0       0       0       0       0
  2240 ;;      Locals:         0       0       0       0       0
  2241 ;;      Temps:          2       0       0       0       0
  2242 ;;      Totals:         2       0       0       0       0
  2243 ;;Total ram usage:        2 bytes
  2244 ;; Hardware stack levels used: 1
  2245 ;; Hardware stack levels required when called: 4
  2246 ;; This function calls:
  2247 ;;		_read_ds1307
  2248 ;; This function is called by:
  2249 ;;		_display_time
  2250 ;; This function uses a non-reentrant model
  2251 ;;
  2252                           
  2253  0E73                     _get_time:	
  2254                           ;psect for function _get_time
  2255                           
  2256  0E73                     l1557:	
  2257                           ;incstack = 0
  2258                           ; Regs used in _get_time: [wreg+status,2+status,0+pclath+cstack]
  2259                           
  2260                           
  2261                           ;car_black_box_def.c: 13:     clock_reg[0] = read_ds1307(0x02);
  2262  0E73  3002               	movlw	2
  2263  0E74  120A  158A  259A  120A  158A  	fcall	_read_ds1307
  2264  0E79  00F6               	movwf	??_get_time
  2265  0E7A  0876               	movf	??_get_time,w
  2266  0E7B  1683               	bsf	3,5	;RP0=1, select bank1
  2267  0E7C  1303               	bcf	3,6	;RP1=0, select bank1
  2268  0E7D  00A6               	movwf	_clock_reg^(0+128)
  2269                           
  2270                           ;car_black_box_def.c: 14:     clock_reg[1] = read_ds1307(0x01);
  2271  0E7E  3001               	movlw	1
  2272  0E7F  120A  158A  259A  120A  158A  	fcall	_read_ds1307
  2273  0E84  00F6               	movwf	??_get_time
  2274  0E85  0876               	movf	??_get_time,w
  2275  0E86  1683               	bsf	3,5	;RP0=1, select bank1
  2276  0E87  1303               	bcf	3,6	;RP1=0, select bank1
  2277  0E88  00A7               	movwf	(_clock_reg^(0+128)+1)
  2278                           
  2279                           ;car_black_box_def.c: 15:     clock_reg[2] = read_ds1307(0x00);
  2280  0E89  3000               	movlw	0
  2281  0E8A  120A  158A  259A  120A  158A  	fcall	_read_ds1307
  2282  0E8F  00F6               	movwf	??_get_time
  2283  0E90  0876               	movf	??_get_time,w
  2284  0E91  1683               	bsf	3,5	;RP0=1, select bank1
  2285  0E92  1303               	bcf	3,6	;RP1=0, select bank1
  2286  0E93  00A8               	movwf	(_clock_reg^(0+128)+2)
  2287  0E94                     l1559:
  2288                           
  2289                           ;car_black_box_def.c: 19:     time[0] = ((clock_reg[0] >> 4) & 0x03) + '0';
  2290  0E94  0826               	movf	_clock_reg^(0+128),w
  2291  0E95  00F6               	movwf	??_get_time
  2292  0E96  3004               	movlw	4
  2293  0E97                     u1405:
  2294  0E97  1003               	clrc
  2295  0E98  0CF6               	rrf	??_get_time,f
  2296  0E99  3EFF               	addlw	-1
  2297  0E9A  1D03               	skipz
  2298  0E9B  2E97               	goto	u1405
  2299  0E9C  0876               	movf	??_get_time,w
  2300  0E9D  3903               	andlw	3
  2301  0E9E  3E30               	addlw	48
  2302  0E9F  00F7               	movwf	??_get_time+1
  2303  0EA0  0877               	movf	??_get_time+1,w
  2304  0EA1  00A0               	movwf	_time^(0+128)
  2305  0EA2                     l1561:
  2306                           
  2307                           ;car_black_box_def.c: 20:     time[1] = (clock_reg[0] & 0x0F) + '0';
  2308  0EA2  0826               	movf	_clock_reg^(0+128),w
  2309  0EA3  390F               	andlw	15
  2310  0EA4  3E30               	addlw	48
  2311  0EA5  00F6               	movwf	??_get_time
  2312  0EA6  0876               	movf	??_get_time,w
  2313  0EA7  00A1               	movwf	(_time^(0+128)+1)
  2314  0EA8                     l1563:
  2315                           
  2316                           ;car_black_box_def.c: 23:     time[2] = ((clock_reg[1] >> 4) & 0x07) + '0';
  2317  0EA8  0827               	movf	(_clock_reg^(0+128)+1),w
  2318  0EA9  00F6               	movwf	??_get_time
  2319  0EAA  3004               	movlw	4
  2320  0EAB                     u1415:
  2321  0EAB  1003               	clrc
  2322  0EAC  0CF6               	rrf	??_get_time,f
  2323  0EAD  3EFF               	addlw	-1
  2324  0EAE  1D03               	skipz
  2325  0EAF  2EAB               	goto	u1415
  2326  0EB0  0876               	movf	??_get_time,w
  2327  0EB1  3907               	andlw	7
  2328  0EB2  3E30               	addlw	48
  2329  0EB3  00F7               	movwf	??_get_time+1
  2330  0EB4  0877               	movf	??_get_time+1,w
  2331  0EB5  00A2               	movwf	(_time^(0+128)+2)
  2332  0EB6                     l1565:
  2333                           
  2334                           ;car_black_box_def.c: 24:     time[3] = (clock_reg[1] & 0x0F) + '0';
  2335  0EB6  0827               	movf	(_clock_reg^(0+128)+1),w
  2336  0EB7  390F               	andlw	15
  2337  0EB8  3E30               	addlw	48
  2338  0EB9  00F6               	movwf	??_get_time
  2339  0EBA  0876               	movf	??_get_time,w
  2340  0EBB  00A3               	movwf	(_time^(0+128)+3)
  2341  0EBC                     l1567:
  2342                           
  2343                           ;car_black_box_def.c: 27:     time[4] = ((clock_reg[2] >> 4) & 0x07) + '0';
  2344  0EBC  0828               	movf	(_clock_reg^(0+128)+2),w
  2345  0EBD  00F6               	movwf	??_get_time
  2346  0EBE  3004               	movlw	4
  2347  0EBF                     u1425:
  2348  0EBF  1003               	clrc
  2349  0EC0  0CF6               	rrf	??_get_time,f
  2350  0EC1  3EFF               	addlw	-1
  2351  0EC2  1D03               	skipz
  2352  0EC3  2EBF               	goto	u1425
  2353  0EC4  0876               	movf	??_get_time,w
  2354  0EC5  3907               	andlw	7
  2355  0EC6  3E30               	addlw	48
  2356  0EC7  00F7               	movwf	??_get_time+1
  2357  0EC8  0877               	movf	??_get_time+1,w
  2358  0EC9  00A4               	movwf	(_time^(0+128)+4)
  2359  0ECA                     l1569:
  2360                           
  2361                           ;car_black_box_def.c: 28:     time[5] = (clock_reg[2] & 0x0F) + '0';
  2362  0ECA  0828               	movf	(_clock_reg^(0+128)+2),w
  2363  0ECB  390F               	andlw	15
  2364  0ECC  3E30               	addlw	48
  2365  0ECD  00F6               	movwf	??_get_time
  2366  0ECE  0876               	movf	??_get_time,w
  2367  0ECF  00A5               	movwf	(_time^(0+128)+5)
  2368  0ED0                     l185:
  2369  0ED0  0008               	return
  2370  0ED1                     __end_of_get_time:
  2371                           
  2372                           	psect	text11
  2373  0D9A                     __ptext11:	
  2374 ;; *************** function _read_ds1307 *****************
  2375 ;; Defined at:
  2376 ;;		line 14 in file "ds1307.c"
  2377 ;; Parameters:    Size  Location     Type
  2378 ;;  addr            1    wreg     unsigned char 
  2379 ;; Auto vars:     Size  Location     Type
  2380 ;;  addr            1    4[COMMON] unsigned char 
  2381 ;;  data            1    5[COMMON] unsigned char 
  2382 ;; Return value:  Size  Location     Type
  2383 ;;                  1    wreg      unsigned char 
  2384 ;; Registers used:
  2385 ;;		wreg, status,2, status,0, pclath, cstack
  2386 ;; Tracked objects:
  2387 ;;		On entry : 0/0
  2388 ;;		On exit  : 0/0
  2389 ;;		Unchanged: 0/0
  2390 ;; Data sizes:     COMMON   BANK0   BANK1   BANK3   BANK2
  2391 ;;      Params:         0       0       0       0       0
  2392 ;;      Locals:         2       0       0       0       0
  2393 ;;      Temps:          1       0       0       0       0
  2394 ;;      Totals:         3       0       0       0       0
  2395 ;;Total ram usage:        3 bytes
  2396 ;; Hardware stack levels used: 1
  2397 ;; Hardware stack levels required when called: 3
  2398 ;; This function calls:
  2399 ;;		_i2c_read
  2400 ;;		_i2c_rep_start
  2401 ;;		_i2c_start
  2402 ;;		_i2c_stop
  2403 ;;		_i2c_write
  2404 ;; This function is called by:
  2405 ;;		_get_time
  2406 ;;		_init_ds1307
  2407 ;; This function uses a non-reentrant model
  2408 ;;
  2409                           
  2410  0D9A                     _read_ds1307:	
  2411                           ;psect for function _read_ds1307
  2412                           
  2413                           
  2414                           ;incstack = 0
  2415                           ; Regs used in _read_ds1307: [wreg+status,2+status,0+pclath+cstack]
  2416                           ;read_ds1307@addr stored from wreg
  2417  0D9A  00F4               	movwf	read_ds1307@addr
  2418  0D9B                     l1529:
  2419                           
  2420                           ;ds1307.c: 14: unsigned char read_ds1307(unsigned char addr);ds1307.c: 15: {;ds1307.c: 1
      +                          6:     unsigned char data;;ds1307.c: 18:     i2c_start();
  2421  0D9B  120A  158A  24A5  120A  158A  	fcall	_i2c_start
  2422                           
  2423                           ;ds1307.c: 19:     i2c_write(0b11010000);
  2424  0DA0  30D0               	movlw	208
  2425  0DA1  120A  158A  24C2  120A  158A  	fcall	_i2c_write
  2426                           
  2427                           ;ds1307.c: 20:     i2c_write(addr);
  2428  0DA6  0874               	movf	read_ds1307@addr,w
  2429  0DA7  120A  158A  24C2  120A  158A  	fcall	_i2c_write
  2430                           
  2431                           ;ds1307.c: 21:     i2c_rep_start();
  2432  0DAC  120A  158A  24B7  120A  158A  	fcall	_i2c_rep_start
  2433                           
  2434                           ;ds1307.c: 22:     i2c_write(0b11010001);
  2435  0DB1  30D1               	movlw	209
  2436  0DB2  120A  158A  24C2  120A  158A  	fcall	_i2c_write
  2437                           
  2438                           ;ds1307.c: 23:     data = i2c_read(0);
  2439  0DB7  3000               	movlw	0
  2440  0DB8  120A  158A  2528  120A  158A  	fcall	_i2c_read
  2441  0DBD  00F3               	movwf	??_read_ds1307
  2442  0DBE  0873               	movf	??_read_ds1307,w
  2443  0DBF  00F5               	movwf	read_ds1307@data
  2444                           
  2445                           ;ds1307.c: 24:     i2c_stop();
  2446  0DC0  120A  158A  24AE  120A  158A  	fcall	_i2c_stop
  2447  0DC5                     l1531:
  2448                           
  2449                           ;ds1307.c: 26:     return data;
  2450  0DC5  0875               	movf	read_ds1307@data,w
  2451  0DC6                     l100:
  2452  0DC6  0008               	return
  2453  0DC7                     __end_of_read_ds1307:
  2454                           
  2455                           	psect	text12
  2456  0CC2                     __ptext12:	
  2457 ;; *************** function _i2c_write *****************
  2458 ;; Defined at:
  2459 ;;		line 65 in file "i2c.c"
  2460 ;; Parameters:    Size  Location     Type
  2461 ;;  data            1    wreg     unsigned char 
  2462 ;; Auto vars:     Size  Location     Type
  2463 ;;  data            1    0[COMMON] unsigned char 
  2464 ;; Return value:  Size  Location     Type
  2465 ;;                  2   88[None  ] int 
  2466 ;; Registers used:
  2467 ;;		wreg, status,2, status,0, pclath, cstack
  2468 ;; Tracked objects:
  2469 ;;		On entry : 0/0
  2470 ;;		On exit  : 0/0
  2471 ;;		Unchanged: 0/0
  2472 ;; Data sizes:     COMMON   BANK0   BANK1   BANK3   BANK2
  2473 ;;      Params:         0       0       0       0       0
  2474 ;;      Locals:         1       0       0       0       0
  2475 ;;      Temps:          0       0       0       0       0
  2476 ;;      Totals:         1       0       0       0       0
  2477 ;;Total ram usage:        1 bytes
  2478 ;; Hardware stack levels used: 1
  2479 ;; Hardware stack levels required when called: 1
  2480 ;; This function calls:
  2481 ;;		_i2c_wait_for_idle
  2482 ;; This function is called by:
  2483 ;;		_read_ds1307
  2484 ;;		_write_ds1307
  2485 ;; This function uses a non-reentrant model
  2486 ;;
  2487                           
  2488  0CC2                     _i2c_write:	
  2489                           ;psect for function _i2c_write
  2490                           
  2491                           
  2492                           ;incstack = 0
  2493                           ; Regs used in _i2c_write: [wreg+status,2+status,0+pclath+cstack]
  2494                           ;i2c_write@data stored from wreg
  2495  0CC2  00F0               	movwf	i2c_write@data
  2496  0CC3                     l1497:
  2497                           
  2498                           ;i2c.c: 65: int i2c_write(unsigned char data);i2c.c: 66: {;i2c.c: 67:     i2c_wait_for_i
      +                          dle();
  2499  0CC3  120A  158A  24D8  120A  158A  	fcall	_i2c_wait_for_idle
  2500  0CC8                     l1499:
  2501                           
  2502                           ;i2c.c: 68:     SSPBUF = data;
  2503  0CC8  0870               	movf	i2c_write@data,w
  2504  0CC9  1283               	bcf	3,5	;RP0=0, select bank0
  2505  0CCA  1303               	bcf	3,6	;RP1=0, select bank0
  2506  0CCB  0093               	movwf	19	;volatile
  2507  0CCC                     l1501:
  2508  0CCC                     l155:	
  2509                           ;i2c.c: 70:     return !ACKSTAT;;	Return value of _i2c_write is never used
  2510                           
  2511  0CCC  0008               	return
  2512  0CCD                     __end_of_i2c_write:
  2513                           
  2514                           	psect	text13
  2515  0CB7                     __ptext13:	
  2516 ;; *************** function _i2c_rep_start *****************
  2517 ;; Defined at:
  2518 ;;		line 28 in file "i2c.c"
  2519 ;; Parameters:    Size  Location     Type
  2520 ;;		None
  2521 ;; Auto vars:     Size  Location     Type
  2522 ;;		None
  2523 ;; Return value:  Size  Location     Type
  2524 ;;                  1    wreg      void 
  2525 ;; Registers used:
  2526 ;;		wreg, status,2, status,0, pclath, cstack
  2527 ;; Tracked objects:
  2528 ;;		On entry : 0/0
  2529 ;;		On exit  : 0/0
  2530 ;;		Unchanged: 0/0
  2531 ;; Data sizes:     COMMON   BANK0   BANK1   BANK3   BANK2
  2532 ;;      Params:         0       0       0       0       0
  2533 ;;      Locals:         0       0       0       0       0
  2534 ;;      Temps:          0       0       0       0       0
  2535 ;;      Totals:         0       0       0       0       0
  2536 ;;Total ram usage:        0 bytes
  2537 ;; Hardware stack levels used: 1
  2538 ;; Hardware stack levels required when called: 2
  2539 ;; This function calls:
  2540 ;;		_i2c_start
  2541 ;;		_i2c_stop
  2542 ;; This function is called by:
  2543 ;;		_read_ds1307
  2544 ;; This function uses a non-reentrant model
  2545 ;;
  2546                           
  2547  0CB7                     _i2c_rep_start:	
  2548                           ;psect for function _i2c_rep_start
  2549                           
  2550  0CB7                     l1505:	
  2551                           ;incstack = 0
  2552                           ; Regs used in _i2c_rep_start: [wreg+status,2+status,0+pclath+cstack]
  2553                           
  2554                           
  2555                           ;i2c.c: 30:     i2c_stop();
  2556  0CB7  120A  158A  24AE  120A  158A  	fcall	_i2c_stop
  2557                           
  2558                           ;i2c.c: 31:     i2c_start();
  2559  0CBC  120A  158A  24A5  120A  158A  	fcall	_i2c_start
  2560  0CC1                     l144:
  2561  0CC1  0008               	return
  2562  0CC2                     __end_of_i2c_rep_start:
  2563                           
  2564                           	psect	text14
  2565  0CAE                     __ptext14:	
  2566 ;; *************** function _i2c_stop *****************
  2567 ;; Defined at:
  2568 ;;		line 35 in file "i2c.c"
  2569 ;; Parameters:    Size  Location     Type
  2570 ;;		None
  2571 ;; Auto vars:     Size  Location     Type
  2572 ;;		None
  2573 ;; Return value:  Size  Location     Type
  2574 ;;                  1    wreg      void 
  2575 ;; Registers used:
  2576 ;;		wreg, status,2, status,0, pclath, cstack
  2577 ;; Tracked objects:
  2578 ;;		On entry : 0/0
  2579 ;;		On exit  : 0/0
  2580 ;;		Unchanged: 0/0
  2581 ;; Data sizes:     COMMON   BANK0   BANK1   BANK3   BANK2
  2582 ;;      Params:         0       0       0       0       0
  2583 ;;      Locals:         0       0       0       0       0
  2584 ;;      Temps:          0       0       0       0       0
  2585 ;;      Totals:         0       0       0       0       0
  2586 ;;Total ram usage:        0 bytes
  2587 ;; Hardware stack levels used: 1
  2588 ;; Hardware stack levels required when called: 1
  2589 ;; This function calls:
  2590 ;;		_i2c_wait_for_idle
  2591 ;; This function is called by:
  2592 ;;		_read_ds1307
  2593 ;;		_i2c_rep_start
  2594 ;;		_write_ds1307
  2595 ;; This function uses a non-reentrant model
  2596 ;;
  2597                           
  2598  0CAE                     _i2c_stop:	
  2599                           ;psect for function _i2c_stop
  2600                           
  2601  0CAE                     l1493:	
  2602                           ;incstack = 0
  2603                           ; Regs used in _i2c_stop: [wreg+status,2+status,0+pclath+cstack]
  2604                           
  2605                           
  2606                           ;i2c.c: 37:     i2c_wait_for_idle();
  2607  0CAE  120A  158A  24D8  120A  158A  	fcall	_i2c_wait_for_idle
  2608  0CB3                     l1495:
  2609                           
  2610                           ;i2c.c: 38:     PEN = 1;
  2611  0CB3  1683               	bsf	3,5	;RP0=1, select bank1
  2612  0CB4  1303               	bcf	3,6	;RP1=0, select bank1
  2613  0CB5  1511               	bsf	17,2	;volatile
  2614  0CB6                     l147:
  2615  0CB6  0008               	return
  2616  0CB7                     __end_of_i2c_stop:
  2617                           
  2618                           	psect	text15
  2619  0CA5                     __ptext15:	
  2620 ;; *************** function _i2c_start *****************
  2621 ;; Defined at:
  2622 ;;		line 22 in file "i2c.c"
  2623 ;; Parameters:    Size  Location     Type
  2624 ;;		None
  2625 ;; Auto vars:     Size  Location     Type
  2626 ;;		None
  2627 ;; Return value:  Size  Location     Type
  2628 ;;                  1    wreg      void 
  2629 ;; Registers used:
  2630 ;;		wreg, status,2, status,0, pclath, cstack
  2631 ;; Tracked objects:
  2632 ;;		On entry : 0/0
  2633 ;;		On exit  : 0/0
  2634 ;;		Unchanged: 0/0
  2635 ;; Data sizes:     COMMON   BANK0   BANK1   BANK3   BANK2
  2636 ;;      Params:         0       0       0       0       0
  2637 ;;      Locals:         0       0       0       0       0
  2638 ;;      Temps:          0       0       0       0       0
  2639 ;;      Totals:         0       0       0       0       0
  2640 ;;Total ram usage:        0 bytes
  2641 ;; Hardware stack levels used: 1
  2642 ;; Hardware stack levels required when called: 1
  2643 ;; This function calls:
  2644 ;;		_i2c_wait_for_idle
  2645 ;; This function is called by:
  2646 ;;		_read_ds1307
  2647 ;;		_i2c_rep_start
  2648 ;;		_write_ds1307
  2649 ;; This function uses a non-reentrant model
  2650 ;;
  2651                           
  2652  0CA5                     _i2c_start:	
  2653                           ;psect for function _i2c_start
  2654                           
  2655  0CA5                     l1489:	
  2656                           ;incstack = 0
  2657                           ; Regs used in _i2c_start: [wreg+status,2+status,0+pclath+cstack]
  2658                           
  2659                           
  2660                           ;i2c.c: 24:     i2c_wait_for_idle();
  2661  0CA5  120A  158A  24D8  120A  158A  	fcall	_i2c_wait_for_idle
  2662  0CAA                     l1491:
  2663                           
  2664                           ;i2c.c: 25:     SEN = 1;
  2665  0CAA  1683               	bsf	3,5	;RP0=1, select bank1
  2666  0CAB  1303               	bcf	3,6	;RP1=0, select bank1
  2667  0CAC  1411               	bsf	17,0	;volatile
  2668  0CAD                     l141:
  2669  0CAD  0008               	return
  2670  0CAE                     __end_of_i2c_start:
  2671                           
  2672                           	psect	text16
  2673  0D28                     __ptext16:	
  2674 ;; *************** function _i2c_read *****************
  2675 ;; Defined at:
  2676 ;;		line 41 in file "i2c.c"
  2677 ;; Parameters:    Size  Location     Type
  2678 ;;  ack             1    wreg     unsigned char 
  2679 ;; Auto vars:     Size  Location     Type
  2680 ;;  ack             1    1[COMMON] unsigned char 
  2681 ;;  data            1    2[COMMON] unsigned char 
  2682 ;; Return value:  Size  Location     Type
  2683 ;;                  1    wreg      unsigned char 
  2684 ;; Registers used:
  2685 ;;		wreg, status,2, status,0, pclath, cstack
  2686 ;; Tracked objects:
  2687 ;;		On entry : 0/0
  2688 ;;		On exit  : 0/0
  2689 ;;		Unchanged: 0/0
  2690 ;; Data sizes:     COMMON   BANK0   BANK1   BANK3   BANK2
  2691 ;;      Params:         0       0       0       0       0
  2692 ;;      Locals:         2       0       0       0       0
  2693 ;;      Temps:          1       0       0       0       0
  2694 ;;      Totals:         3       0       0       0       0
  2695 ;;Total ram usage:        3 bytes
  2696 ;; Hardware stack levels used: 1
  2697 ;; Hardware stack levels required when called: 1
  2698 ;; This function calls:
  2699 ;;		_i2c_wait_for_idle
  2700 ;; This function is called by:
  2701 ;;		_read_ds1307
  2702 ;; This function uses a non-reentrant model
  2703 ;;
  2704                           
  2705  0D28                     _i2c_read:	
  2706                           ;psect for function _i2c_read
  2707                           
  2708                           
  2709                           ;incstack = 0
  2710                           ; Regs used in _i2c_read: [wreg+status,2+status,0+pclath+cstack]
  2711                           ;i2c_read@ack stored from wreg
  2712  0D28  00F1               	movwf	i2c_read@ack
  2713  0D29                     l1507:
  2714                           
  2715                           ;i2c.c: 41: unsigned char i2c_read(unsigned char ack);i2c.c: 42: {;i2c.c: 43:     unsign
      +                          ed char data;;i2c.c: 45:     i2c_wait_for_idle();
  2716  0D29  120A  158A  24D8  120A  158A  	fcall	_i2c_wait_for_idle
  2717  0D2E                     l1509:
  2718                           
  2719                           ;i2c.c: 46:     RCEN = 1;
  2720  0D2E  1683               	bsf	3,5	;RP0=1, select bank1
  2721  0D2F  1303               	bcf	3,6	;RP1=0, select bank1
  2722  0D30  1591               	bsf	17,3	;volatile
  2723                           
  2724                           ;i2c.c: 48:     i2c_wait_for_idle();
  2725  0D31  120A  158A  24D8  120A  158A  	fcall	_i2c_wait_for_idle
  2726  0D36                     l1511:
  2727                           
  2728                           ;i2c.c: 49:     data = SSPBUF;
  2729  0D36  1283               	bcf	3,5	;RP0=0, select bank0
  2730  0D37  1303               	bcf	3,6	;RP1=0, select bank0
  2731  0D38  0813               	movf	19,w	;volatile
  2732  0D39  00F0               	movwf	??_i2c_read
  2733  0D3A  0870               	movf	??_i2c_read,w
  2734  0D3B  00F2               	movwf	i2c_read@data
  2735  0D3C                     l1513:
  2736                           
  2737                           ;i2c.c: 51:     if (ack == 1)
  2738  0D3C  0371               	decf	i2c_read@ack,w
  2739  0D3D  1D03               	btfss	3,2
  2740  0D3E  2D40               	goto	u1371
  2741  0D3F  2D41               	goto	u1370
  2742  0D40                     u1371:
  2743  0D40  2D45               	goto	l150
  2744  0D41                     u1370:
  2745  0D41                     l1515:
  2746                           
  2747                           ;i2c.c: 52:     {;i2c.c: 53:         ACKDT = 1;
  2748  0D41  1683               	bsf	3,5	;RP0=1, select bank1
  2749  0D42  1303               	bcf	3,6	;RP1=0, select bank1
  2750  0D43  1691               	bsf	17,5	;volatile
  2751                           
  2752                           ;i2c.c: 54:     }
  2753  0D44  2D48               	goto	l151
  2754  0D45                     l150:	
  2755                           ;i2c.c: 55:     else
  2756                           
  2757                           
  2758                           ;i2c.c: 56:     {;i2c.c: 57:         ACKDT = 0;
  2759  0D45  1683               	bsf	3,5	;RP0=1, select bank1
  2760  0D46  1303               	bcf	3,6	;RP1=0, select bank1
  2761  0D47  1291               	bcf	17,5	;volatile
  2762  0D48                     l151:	
  2763                           ;i2c.c: 58:     }
  2764                           
  2765                           
  2766                           ;i2c.c: 60:     ACKEN = 1;
  2767  0D48  1611               	bsf	17,4	;volatile
  2768  0D49                     l1517:
  2769                           
  2770                           ;i2c.c: 62:     return data;
  2771  0D49  0872               	movf	i2c_read@data,w
  2772  0D4A                     l152:
  2773  0D4A  0008               	return
  2774  0D4B                     __end_of_i2c_read:
  2775                           
  2776                           	psect	text17
  2777  0CD8                     __ptext17:	
  2778 ;; *************** function _i2c_wait_for_idle *****************
  2779 ;; Defined at:
  2780 ;;		line 16 in file "i2c.c"
  2781 ;; Parameters:    Size  Location     Type
  2782 ;;		None
  2783 ;; Auto vars:     Size  Location     Type
  2784 ;;		None
  2785 ;; Return value:  Size  Location     Type
  2786 ;;                  1    wreg      void 
  2787 ;; Registers used:
  2788 ;;		wreg, status,2
  2789 ;; Tracked objects:
  2790 ;;		On entry : 0/0
  2791 ;;		On exit  : 0/0
  2792 ;;		Unchanged: 0/0
  2793 ;; Data sizes:     COMMON   BANK0   BANK1   BANK3   BANK2
  2794 ;;      Params:         0       0       0       0       0
  2795 ;;      Locals:         0       0       0       0       0
  2796 ;;      Temps:          0       0       0       0       0
  2797 ;;      Totals:         0       0       0       0       0
  2798 ;;Total ram usage:        0 bytes
  2799 ;; Hardware stack levels used: 1
  2800 ;; This function calls:
  2801 ;;		Nothing
  2802 ;; This function is called by:
  2803 ;;		_i2c_start
  2804 ;;		_i2c_stop
  2805 ;;		_i2c_read
  2806 ;;		_i2c_write
  2807 ;; This function uses a non-reentrant model
  2808 ;;
  2809                           
  2810  0CD8                     _i2c_wait_for_idle:	
  2811                           ;psect for function _i2c_wait_for_idle
  2812                           
  2813  0CD8                     l1485:	
  2814                           ;incstack = 0
  2815                           ; Regs used in _i2c_wait_for_idle: [wreg+status,2]
  2816                           
  2817  0CD8                     l135:	
  2818                           ;i2c.c: 19:     while (R_nW || (SSPCON2 & 0x1F));
  2819                           
  2820  0CD8  1683               	bsf	3,5	;RP0=1, select bank1
  2821  0CD9  1303               	bcf	3,6	;RP1=0, select bank1
  2822  0CDA  1914               	btfsc	20,2	;volatile
  2823  0CDB  2CDD               	goto	u1351
  2824  0CDC  2CDE               	goto	u1350
  2825  0CDD                     u1351:
  2826  0CDD  2CD8               	goto	l135
  2827  0CDE                     u1350:
  2828  0CDE                     l1487:
  2829  0CDE  0811               	movf	17,w	;volatile
  2830  0CDF  391F               	andlw	31
  2831  0CE0  1D03               	btfss	3,2
  2832  0CE1  2CE3               	goto	u1361
  2833  0CE2  2CE4               	goto	u1360
  2834  0CE3                     u1361:
  2835  0CE3  2CD8               	goto	l135
  2836  0CE4                     u1360:
  2837  0CE4                     l138:
  2838  0CE4  0008               	return
  2839  0CE5                     __end_of_i2c_wait_for_idle:
  2840                           
  2841                           	psect	text18
  2842  0CE5                     __ptext18:	
  2843 ;; *************** function _clcd_putch *****************
  2844 ;; Defined at:
  2845 ;;		line 51 in file "clcd.c"
  2846 ;; Parameters:    Size  Location     Type
  2847 ;;  data            1    wreg     const unsigned char 
  2848 ;;  addr            1    9[COMMON] unsigned char 
  2849 ;; Auto vars:     Size  Location     Type
  2850 ;;  data            1   10[COMMON] const unsigned char 
  2851 ;; Return value:  Size  Location     Type
  2852 ;;                  1    wreg      void 
  2853 ;; Registers used:
  2854 ;;		wreg, status,2, status,0, pclath, cstack
  2855 ;; Tracked objects:
  2856 ;;		On entry : 0/0
  2857 ;;		On exit  : 0/0
  2858 ;;		Unchanged: 0/0
  2859 ;; Data sizes:     COMMON   BANK0   BANK1   BANK3   BANK2
  2860 ;;      Params:         1       0       0       0       0
  2861 ;;      Locals:         1       0       0       0       0
  2862 ;;      Temps:          0       0       0       0       0
  2863 ;;      Totals:         2       0       0       0       0
  2864 ;;Total ram usage:        2 bytes
  2865 ;; Hardware stack levels used: 1
  2866 ;; Hardware stack levels required when called: 1
  2867 ;; This function calls:
  2868 ;;		_clcd_write
  2869 ;; This function is called by:
  2870 ;;		_display_time
  2871 ;;		_display_dashboard
  2872 ;; This function uses a non-reentrant model
  2873 ;;
  2874                           
  2875  0CE5                     _clcd_putch:	
  2876                           ;psect for function _clcd_putch
  2877                           
  2878                           
  2879                           ;incstack = 0
  2880                           ; Regs used in _clcd_putch: [wreg+status,2+status,0+pclath+cstack]
  2881                           ;clcd_putch@data stored from wreg
  2882  0CE5  00FA               	movwf	clcd_putch@data
  2883  0CE6                     l1555:
  2884                           
  2885                           ;clcd.c: 51: void clcd_putch(const char data, unsigned char addr);clcd.c: 52: {;clcd.c: 
      +                          53:     clcd_write(addr, 0);
  2886  0CE6  01F0               	clrf	clcd_write@mode
  2887  0CE7  0879               	movf	clcd_putch@addr,w
  2888  0CE8  120A  158A  2508  120A  158A  	fcall	_clcd_write
  2889                           
  2890                           ;clcd.c: 54:     clcd_write(data, 1);
  2891  0CED  01F0               	clrf	clcd_write@mode
  2892  0CEE  0AF0               	incf	clcd_write@mode,f
  2893  0CEF  087A               	movf	clcd_putch@data,w
  2894  0CF0  120A  158A  2508  120A  158A  	fcall	_clcd_write
  2895  0CF5                     l74:
  2896  0CF5  0008               	return
  2897  0CF6                     __end_of_clcd_putch:
  2898                           
  2899                           	psect	text19
  2900  0D72                     __ptext19:	
  2901 ;; *************** function _clcd_print *****************
  2902 ;; Defined at:
  2903 ;;		line 57 in file "clcd.c"
  2904 ;; Parameters:    Size  Location     Type
  2905 ;;  str             1    wreg     PTR const unsigned char 
  2906 ;;		 -> STR_1(17), 
  2907 ;;  addr            1    4[COMMON] unsigned char 
  2908 ;; Auto vars:     Size  Location     Type
  2909 ;;  str             1    6[COMMON] PTR const unsigned char 
  2910 ;;		 -> STR_1(17), 
  2911 ;; Return value:  Size  Location     Type
  2912 ;;                  1    wreg      void 
  2913 ;; Registers used:
  2914 ;;		wreg, fsr0l, fsr0h, status,2, status,0, pclath, cstack
  2915 ;; Tracked objects:
  2916 ;;		On entry : 0/0
  2917 ;;		On exit  : 0/0
  2918 ;;		Unchanged: 0/0
  2919 ;; Data sizes:     COMMON   BANK0   BANK1   BANK3   BANK2
  2920 ;;      Params:         1       0       0       0       0
  2921 ;;      Locals:         1       0       0       0       0
  2922 ;;      Temps:          1       0       0       0       0
  2923 ;;      Totals:         3       0       0       0       0
  2924 ;;Total ram usage:        3 bytes
  2925 ;; Hardware stack levels used: 1
  2926 ;; Hardware stack levels required when called: 1
  2927 ;; This function calls:
  2928 ;;		_clcd_write
  2929 ;; This function is called by:
  2930 ;;		_display_dashboard
  2931 ;; This function uses a non-reentrant model
  2932 ;;
  2933                           
  2934  0D72                     _clcd_print:	
  2935                           ;psect for function _clcd_print
  2936                           
  2937                           
  2938                           ;incstack = 0
  2939                           ; Regs used in _clcd_print: [wreg-fsr0h+status,2+status,0+pclath+cstack]
  2940                           ;clcd_print@str stored from wreg
  2941  0D72  00F6               	movwf	clcd_print@str
  2942  0D73                     l1611:
  2943                           
  2944                           ;clcd.c: 57: void clcd_print(const char *str, unsigned char addr);clcd.c: 58: {;clcd.c: 
      +                          59:     clcd_write(addr, 0);
  2945  0D73  01F0               	clrf	clcd_write@mode
  2946  0D74  0874               	movf	clcd_print@addr,w
  2947  0D75  120A  158A  2508  120A  158A  	fcall	_clcd_write
  2948                           
  2949                           ;clcd.c: 61:     while (*str != '\0')
  2950  0D7A  2D8D               	goto	l1617
  2951  0D7B                     l1613:
  2952                           
  2953                           ;clcd.c: 62:     {;clcd.c: 63:         clcd_write(*str, 1);
  2954  0D7B  01F0               	clrf	clcd_write@mode
  2955  0D7C  0AF0               	incf	clcd_write@mode,f
  2956  0D7D  0876               	movf	clcd_print@str,w
  2957  0D7E  0084               	movwf	4
  2958  0D7F  120A  158A  2000  120A  158A  	fcall	stringdir
  2959  0D84  120A  158A  2508  120A  158A  	fcall	_clcd_write
  2960  0D89                     l1615:
  2961                           
  2962                           ;clcd.c: 64:         str++;
  2963  0D89  3001               	movlw	1
  2964  0D8A  00F5               	movwf	??_clcd_print
  2965  0D8B  0875               	movf	??_clcd_print,w
  2966  0D8C  07F6               	addwf	clcd_print@str,f
  2967  0D8D                     l1617:
  2968                           
  2969                           ;clcd.c: 61:     while (*str != '\0')
  2970  0D8D  0876               	movf	clcd_print@str,w
  2971  0D8E  0084               	movwf	4
  2972  0D8F  120A  158A  2000  120A  158A  	fcall	stringdir
  2973  0D94  3A00               	xorlw	0
  2974  0D95  1D03               	skipz
  2975  0D96  2D98               	goto	u1511
  2976  0D97  2D99               	goto	u1510
  2977  0D98                     u1511:
  2978  0D98  2D7B               	goto	l1613
  2979  0D99                     u1510:
  2980  0D99                     l80:
  2981  0D99  0008               	return
  2982  0D9A                     __end_of_clcd_print:
  2983                           
  2984                           	psect	text20
  2985  0D08                     __ptext20:	
  2986 ;; *************** function _clcd_write *****************
  2987 ;; Defined at:
  2988 ;;		line 4 in file "clcd.c"
  2989 ;; Parameters:    Size  Location     Type
  2990 ;;  byte            1    wreg     unsigned char 
  2991 ;;  mode            1    0[COMMON] unsigned char 
  2992 ;; Auto vars:     Size  Location     Type
  2993 ;;  byte            1    3[COMMON] unsigned char 
  2994 ;; Return value:  Size  Location     Type
  2995 ;;                  1    wreg      void 
  2996 ;; Registers used:
  2997 ;;		wreg
  2998 ;; Tracked objects:
  2999 ;;		On entry : 0/0
  3000 ;;		On exit  : 0/0
  3001 ;;		Unchanged: 0/0
  3002 ;; Data sizes:     COMMON   BANK0   BANK1   BANK3   BANK2
  3003 ;;      Params:         1       0       0       0       0
  3004 ;;      Locals:         1       0       0       0       0
  3005 ;;      Temps:          2       0       0       0       0
  3006 ;;      Totals:         4       0       0       0       0
  3007 ;;Total ram usage:        4 bytes
  3008 ;; Hardware stack levels used: 1
  3009 ;; This function calls:
  3010 ;;		Nothing
  3011 ;; This function is called by:
  3012 ;;		_init_display_controller
  3013 ;;		_clcd_putch
  3014 ;;		_clcd_print
  3015 ;; This function uses a non-reentrant model
  3016 ;;
  3017                           
  3018  0D08                     _clcd_write:	
  3019                           ;psect for function _clcd_write
  3020                           
  3021                           
  3022                           ;incstack = 0
  3023                           ; Regs used in _clcd_write: [wreg]
  3024                           ;clcd_write@byte stored from wreg
  3025  0D08  00F3               	movwf	clcd_write@byte
  3026  0D09                     l1521:
  3027                           
  3028                           ;clcd.c: 4: static void clcd_write(unsigned char byte, unsigned char mode);clcd.c: 5: {;
      +                          clcd.c: 6:     RE2 = mode;
  3029  0D09  1870               	btfsc	clcd_write@mode,0
  3030  0D0A  2D0C               	goto	u1381
  3031  0D0B  2D10               	goto	u1380
  3032  0D0C                     u1381:
  3033  0D0C  1283               	bcf	3,5	;RP0=0, select bank0
  3034  0D0D  1303               	bcf	3,6	;RP1=0, select bank0
  3035  0D0E  1509               	bsf	9,2	;volatile
  3036  0D0F  2D13               	goto	u1394
  3037  0D10                     u1380:
  3038  0D10  1283               	bcf	3,5	;RP0=0, select bank0
  3039  0D11  1303               	bcf	3,6	;RP1=0, select bank0
  3040  0D12  1109               	bcf	9,2	;volatile
  3041  0D13                     u1394:
  3042  0D13                     l1523:
  3043                           
  3044                           ;clcd.c: 7:     PORTD = byte;
  3045  0D13  0873               	movf	clcd_write@byte,w
  3046  0D14  0088               	movwf	8	;volatile
  3047  0D15                     l1525:
  3048                           
  3049                           ;clcd.c: 9:     RE1 = 1;
  3050  0D15  1489               	bsf	9,1	;volatile
  3051                           
  3052                           ;clcd.c: 10:     _delay((unsigned long)((100)*(20000000/4000000.0)));
  3053  0D16  30A6               	movlw	166
  3054  0D17  00F1               	movwf	??_clcd_write
  3055  0D18                     u2757:
  3056  0D18  0BF1               	decfsz	??_clcd_write,f
  3057  0D19  2D18               	goto	u2757
  3058  0D1A  0000               	nop
  3059  0D1B                     l1527:
  3060                           
  3061                           ;clcd.c: 11:     RE1 = 0;
  3062  0D1B  1283               	bcf	3,5	;RP0=0, select bank0
  3063  0D1C  1303               	bcf	3,6	;RP1=0, select bank0
  3064  0D1D  1089               	bcf	9,1	;volatile
  3065                           
  3066                           ;clcd.c: 13:     _delay((unsigned long)((4100)*(20000000/4000000.0)));
  3067  0D1E  301B               	movlw	27
  3068  0D1F  00F2               	movwf	??_clcd_write+1
  3069  0D20  309E               	movlw	158
  3070  0D21  00F1               	movwf	??_clcd_write
  3071  0D22                     u2767:
  3072  0D22  0BF1               	decfsz	??_clcd_write,f
  3073  0D23  2D22               	goto	u2767
  3074  0D24  0BF2               	decfsz	??_clcd_write+1,f
  3075  0D25  2D22               	goto	u2767
  3076  0D26  0000               	nop
  3077  0D27                     l65:
  3078  0D27  0008               	return
  3079  0D28                     __end_of_clcd_write:
  3080                           
  3081                           	psect	text21
  3082  0E1A                     __ptext21:	
  3083 ;; *************** function ___awmod *****************
  3084 ;; Defined at:
  3085 ;;		line 5 in file "C:\Program Files\Microchip\xc8\v2.36\pic\sources\c90\common\awmod.c"
  3086 ;; Parameters:    Size  Location     Type
  3087 ;;  divisor         2    0[COMMON] int 
  3088 ;;  dividend        2    2[COMMON] int 
  3089 ;; Auto vars:     Size  Location     Type
  3090 ;;  sign            1    6[COMMON] unsigned char 
  3091 ;;  counter         1    5[COMMON] unsigned char 
  3092 ;; Return value:  Size  Location     Type
  3093 ;;                  2    0[COMMON] int 
  3094 ;; Registers used:
  3095 ;;		wreg, status,2, status,0
  3096 ;; Tracked objects:
  3097 ;;		On entry : 0/0
  3098 ;;		On exit  : 0/0
  3099 ;;		Unchanged: 0/0
  3100 ;; Data sizes:     COMMON   BANK0   BANK1   BANK3   BANK2
  3101 ;;      Params:         4       0       0       0       0
  3102 ;;      Locals:         2       0       0       0       0
  3103 ;;      Temps:          1       0       0       0       0
  3104 ;;      Totals:         7       0       0       0       0
  3105 ;;Total ram usage:        7 bytes
  3106 ;; Hardware stack levels used: 1
  3107 ;; This function calls:
  3108 ;;		Nothing
  3109 ;; This function is called by:
  3110 ;;		_display_dashboard
  3111 ;; This function uses a non-reentrant model
  3112 ;;
  3113                           
  3114  0E1A                     ___awmod:	
  3115                           ;psect for function ___awmod
  3116                           
  3117  0E1A                     l1665:	
  3118                           ;incstack = 0
  3119                           ; Regs used in ___awmod: [wreg+status,2+status,0]
  3120                           
  3121  0E1A  01F6               	clrf	___awmod@sign
  3122  0E1B                     l1667:
  3123  0E1B  1FF3               	btfss	___awmod@dividend+1,7
  3124  0E1C  2E1E               	goto	u1621
  3125  0E1D  2E1F               	goto	u1620
  3126  0E1E                     u1621:
  3127  0E1E  2E26               	goto	l1673
  3128  0E1F                     u1620:
  3129  0E1F                     l1669:
  3130  0E1F  09F2               	comf	___awmod@dividend,f
  3131  0E20  09F3               	comf	___awmod@dividend+1,f
  3132  0E21  0AF2               	incf	___awmod@dividend,f
  3133  0E22  1903               	skipnz
  3134  0E23  0AF3               	incf	___awmod@dividend+1,f
  3135  0E24                     l1671:
  3136  0E24  01F6               	clrf	___awmod@sign
  3137  0E25  0AF6               	incf	___awmod@sign,f
  3138  0E26                     l1673:
  3139  0E26  1FF1               	btfss	___awmod@divisor+1,7
  3140  0E27  2E29               	goto	u1631
  3141  0E28  2E2A               	goto	u1630
  3142  0E29                     u1631:
  3143  0E29  2E2F               	goto	l1677
  3144  0E2A                     u1630:
  3145  0E2A                     l1675:
  3146  0E2A  09F0               	comf	___awmod@divisor,f
  3147  0E2B  09F1               	comf	___awmod@divisor+1,f
  3148  0E2C  0AF0               	incf	___awmod@divisor,f
  3149  0E2D  1903               	skipnz
  3150  0E2E  0AF1               	incf	___awmod@divisor+1,f
  3151  0E2F                     l1677:
  3152  0E2F  0870               	movf	___awmod@divisor,w
  3153  0E30  0471               	iorwf	___awmod@divisor+1,w
  3154  0E31  1903               	btfsc	3,2
  3155  0E32  2E34               	goto	u1641
  3156  0E33  2E35               	goto	u1640
  3157  0E34                     u1641:
  3158  0E34  2E64               	goto	l1695
  3159  0E35                     u1640:
  3160  0E35                     l1679:
  3161  0E35  01F5               	clrf	___awmod@counter
  3162  0E36  0AF5               	incf	___awmod@counter,f
  3163  0E37  2E43               	goto	l1685
  3164  0E38                     l1681:
  3165  0E38  3001               	movlw	1
  3166  0E39                     u1655:
  3167  0E39  1003               	clrc
  3168  0E3A  0DF0               	rlf	___awmod@divisor,f
  3169  0E3B  0DF1               	rlf	___awmod@divisor+1,f
  3170  0E3C  3EFF               	addlw	-1
  3171  0E3D  1D03               	skipz
  3172  0E3E  2E39               	goto	u1655
  3173  0E3F                     l1683:
  3174  0E3F  3001               	movlw	1
  3175  0E40  00F4               	movwf	??___awmod
  3176  0E41  0874               	movf	??___awmod,w
  3177  0E42  07F5               	addwf	___awmod@counter,f
  3178  0E43                     l1685:
  3179  0E43  1FF1               	btfss	___awmod@divisor+1,7
  3180  0E44  2E46               	goto	u1661
  3181  0E45  2E47               	goto	u1660
  3182  0E46                     u1661:
  3183  0E46  2E38               	goto	l1681
  3184  0E47                     u1660:
  3185  0E47                     l1687:
  3186  0E47  0871               	movf	___awmod@divisor+1,w
  3187  0E48  0273               	subwf	___awmod@dividend+1,w
  3188  0E49  1D03               	skipz
  3189  0E4A  2E4D               	goto	u1675
  3190  0E4B  0870               	movf	___awmod@divisor,w
  3191  0E4C  0272               	subwf	___awmod@dividend,w
  3192  0E4D                     u1675:
  3193  0E4D  1C03               	skipc
  3194  0E4E  2E50               	goto	u1671
  3195  0E4F  2E51               	goto	u1670
  3196  0E50                     u1671:
  3197  0E50  2E57               	goto	l1691
  3198  0E51                     u1670:
  3199  0E51                     l1689:
  3200  0E51  0870               	movf	___awmod@divisor,w
  3201  0E52  02F2               	subwf	___awmod@dividend,f
  3202  0E53  0871               	movf	___awmod@divisor+1,w
  3203  0E54  1C03               	skipc
  3204  0E55  03F3               	decf	___awmod@dividend+1,f
  3205  0E56  02F3               	subwf	___awmod@dividend+1,f
  3206  0E57                     l1691:
  3207  0E57  3001               	movlw	1
  3208  0E58                     u1685:
  3209  0E58  1003               	clrc
  3210  0E59  0CF1               	rrf	___awmod@divisor+1,f
  3211  0E5A  0CF0               	rrf	___awmod@divisor,f
  3212  0E5B  3EFF               	addlw	-1
  3213  0E5C  1D03               	skipz
  3214  0E5D  2E58               	goto	u1685
  3215  0E5E                     l1693:
  3216  0E5E  3001               	movlw	1
  3217  0E5F  02F5               	subwf	___awmod@counter,f
  3218  0E60  1D03               	btfss	3,2
  3219  0E61  2E63               	goto	u1691
  3220  0E62  2E64               	goto	u1690
  3221  0E63                     u1691:
  3222  0E63  2E47               	goto	l1687
  3223  0E64                     u1690:
  3224  0E64                     l1695:
  3225  0E64  0876               	movf	___awmod@sign,w
  3226  0E65  1903               	btfsc	3,2
  3227  0E66  2E68               	goto	u1701
  3228  0E67  2E69               	goto	u1700
  3229  0E68                     u1701:
  3230  0E68  2E6E               	goto	l1699
  3231  0E69                     u1700:
  3232  0E69                     l1697:
  3233  0E69  09F2               	comf	___awmod@dividend,f
  3234  0E6A  09F3               	comf	___awmod@dividend+1,f
  3235  0E6B  0AF2               	incf	___awmod@dividend,f
  3236  0E6C  1903               	skipnz
  3237  0E6D  0AF3               	incf	___awmod@dividend+1,f
  3238  0E6E                     l1699:
  3239  0E6E  0873               	movf	___awmod@dividend+1,w
  3240  0E6F  00F1               	movwf	?___awmod+1
  3241  0E70  0872               	movf	___awmod@dividend,w
  3242  0E71  00F0               	movwf	?___awmod
  3243  0E72                     l443:
  3244  0E72  0008               	return
  3245  0E73                     __end_of___awmod:
  3246                           
  3247                           	psect	text22
  3248  0F99                     __ptext22:	
  3249 ;; *************** function ___awdiv *****************
  3250 ;; Defined at:
  3251 ;;		line 5 in file "C:\Program Files\Microchip\xc8\v2.36\pic\sources\c90\common\awdiv.c"
  3252 ;; Parameters:    Size  Location     Type
  3253 ;;  divisor         2    0[COMMON] int 
  3254 ;;  dividend        2    2[COMMON] int 
  3255 ;; Auto vars:     Size  Location     Type
  3256 ;;  quotient        2    7[COMMON] int 
  3257 ;;  sign            1    6[COMMON] unsigned char 
  3258 ;;  counter         1    5[COMMON] unsigned char 
  3259 ;; Return value:  Size  Location     Type
  3260 ;;                  2    0[COMMON] int 
  3261 ;; Registers used:
  3262 ;;		wreg, status,2, status,0
  3263 ;; Tracked objects:
  3264 ;;		On entry : 0/0
  3265 ;;		On exit  : 0/0
  3266 ;;		Unchanged: 0/0
  3267 ;; Data sizes:     COMMON   BANK0   BANK1   BANK3   BANK2
  3268 ;;      Params:         4       0       0       0       0
  3269 ;;      Locals:         4       0       0       0       0
  3270 ;;      Temps:          1       0       0       0       0
  3271 ;;      Totals:         9       0       0       0       0
  3272 ;;Total ram usage:        9 bytes
  3273 ;; Hardware stack levels used: 1
  3274 ;; This function calls:
  3275 ;;		Nothing
  3276 ;; This function is called by:
  3277 ;;		_display_dashboard
  3278 ;; This function uses a non-reentrant model
  3279 ;;
  3280                           
  3281  0F99                     ___awdiv:	
  3282                           ;psect for function ___awdiv
  3283                           
  3284  0F99                     l1621:	
  3285                           ;incstack = 0
  3286                           ; Regs used in ___awdiv: [wreg+status,2+status,0]
  3287                           
  3288  0F99  01F6               	clrf	___awdiv@sign
  3289  0F9A                     l1623:
  3290  0F9A  1FF1               	btfss	___awdiv@divisor+1,7
  3291  0F9B  2F9D               	goto	u1521
  3292  0F9C  2F9E               	goto	u1520
  3293  0F9D                     u1521:
  3294  0F9D  2FA5               	goto	l1629
  3295  0F9E                     u1520:
  3296  0F9E                     l1625:
  3297  0F9E  09F0               	comf	___awdiv@divisor,f
  3298  0F9F  09F1               	comf	___awdiv@divisor+1,f
  3299  0FA0  0AF0               	incf	___awdiv@divisor,f
  3300  0FA1  1903               	skipnz
  3301  0FA2  0AF1               	incf	___awdiv@divisor+1,f
  3302  0FA3                     l1627:
  3303  0FA3  01F6               	clrf	___awdiv@sign
  3304  0FA4  0AF6               	incf	___awdiv@sign,f
  3305  0FA5                     l1629:
  3306  0FA5  1FF3               	btfss	___awdiv@dividend+1,7
  3307  0FA6  2FA8               	goto	u1531
  3308  0FA7  2FA9               	goto	u1530
  3309  0FA8                     u1531:
  3310  0FA8  2FB2               	goto	l1635
  3311  0FA9                     u1530:
  3312  0FA9                     l1631:
  3313  0FA9  09F2               	comf	___awdiv@dividend,f
  3314  0FAA  09F3               	comf	___awdiv@dividend+1,f
  3315  0FAB  0AF2               	incf	___awdiv@dividend,f
  3316  0FAC  1903               	skipnz
  3317  0FAD  0AF3               	incf	___awdiv@dividend+1,f
  3318  0FAE                     l1633:
  3319  0FAE  3001               	movlw	1
  3320  0FAF  00F4               	movwf	??___awdiv
  3321  0FB0  0874               	movf	??___awdiv,w
  3322  0FB1  06F6               	xorwf	___awdiv@sign,f
  3323  0FB2                     l1635:
  3324  0FB2  01F7               	clrf	___awdiv@quotient
  3325  0FB3  01F8               	clrf	___awdiv@quotient+1
  3326  0FB4                     l1637:
  3327  0FB4  0870               	movf	___awdiv@divisor,w
  3328  0FB5  0471               	iorwf	___awdiv@divisor+1,w
  3329  0FB6  1903               	btfsc	3,2
  3330  0FB7  2FB9               	goto	u1541
  3331  0FB8  2FBA               	goto	u1540
  3332  0FB9                     u1541:
  3333  0FB9  2FF1               	goto	l1657
  3334  0FBA                     u1540:
  3335  0FBA                     l1639:
  3336  0FBA  01F5               	clrf	___awdiv@counter
  3337  0FBB  0AF5               	incf	___awdiv@counter,f
  3338  0FBC  2FC8               	goto	l1645
  3339  0FBD                     l1641:
  3340  0FBD  3001               	movlw	1
  3341  0FBE                     u1555:
  3342  0FBE  1003               	clrc
  3343  0FBF  0DF0               	rlf	___awdiv@divisor,f
  3344  0FC0  0DF1               	rlf	___awdiv@divisor+1,f
  3345  0FC1  3EFF               	addlw	-1
  3346  0FC2  1D03               	skipz
  3347  0FC3  2FBE               	goto	u1555
  3348  0FC4                     l1643:
  3349  0FC4  3001               	movlw	1
  3350  0FC5  00F4               	movwf	??___awdiv
  3351  0FC6  0874               	movf	??___awdiv,w
  3352  0FC7  07F5               	addwf	___awdiv@counter,f
  3353  0FC8                     l1645:
  3354  0FC8  1FF1               	btfss	___awdiv@divisor+1,7
  3355  0FC9  2FCB               	goto	u1561
  3356  0FCA  2FCC               	goto	u1560
  3357  0FCB                     u1561:
  3358  0FCB  2FBD               	goto	l1641
  3359  0FCC                     u1560:
  3360  0FCC                     l1647:
  3361  0FCC  3001               	movlw	1
  3362  0FCD                     u1575:
  3363  0FCD  1003               	clrc
  3364  0FCE  0DF7               	rlf	___awdiv@quotient,f
  3365  0FCF  0DF8               	rlf	___awdiv@quotient+1,f
  3366  0FD0  3EFF               	addlw	-1
  3367  0FD1  1D03               	skipz
  3368  0FD2  2FCD               	goto	u1575
  3369  0FD3  0871               	movf	___awdiv@divisor+1,w
  3370  0FD4  0273               	subwf	___awdiv@dividend+1,w
  3371  0FD5  1D03               	skipz
  3372  0FD6  2FD9               	goto	u1585
  3373  0FD7  0870               	movf	___awdiv@divisor,w
  3374  0FD8  0272               	subwf	___awdiv@dividend,w
  3375  0FD9                     u1585:
  3376  0FD9  1C03               	skipc
  3377  0FDA  2FDC               	goto	u1581
  3378  0FDB  2FDD               	goto	u1580
  3379  0FDC                     u1581:
  3380  0FDC  2FE4               	goto	l1653
  3381  0FDD                     u1580:
  3382  0FDD                     l1649:
  3383  0FDD  0870               	movf	___awdiv@divisor,w
  3384  0FDE  02F2               	subwf	___awdiv@dividend,f
  3385  0FDF  0871               	movf	___awdiv@divisor+1,w
  3386  0FE0  1C03               	skipc
  3387  0FE1  03F3               	decf	___awdiv@dividend+1,f
  3388  0FE2  02F3               	subwf	___awdiv@dividend+1,f
  3389  0FE3                     l1651:
  3390  0FE3  1477               	bsf	___awdiv@quotient,0
  3391  0FE4                     l1653:
  3392  0FE4  3001               	movlw	1
  3393  0FE5                     u1595:
  3394  0FE5  1003               	clrc
  3395  0FE6  0CF1               	rrf	___awdiv@divisor+1,f
  3396  0FE7  0CF0               	rrf	___awdiv@divisor,f
  3397  0FE8  3EFF               	addlw	-1
  3398  0FE9  1D03               	skipz
  3399  0FEA  2FE5               	goto	u1595
  3400  0FEB                     l1655:
  3401  0FEB  3001               	movlw	1
  3402  0FEC  02F5               	subwf	___awdiv@counter,f
  3403  0FED  1D03               	btfss	3,2
  3404  0FEE  2FF0               	goto	u1601
  3405  0FEF  2FF1               	goto	u1600
  3406  0FF0                     u1601:
  3407  0FF0  2FCC               	goto	l1647
  3408  0FF1                     u1600:
  3409  0FF1                     l1657:
  3410  0FF1  0876               	movf	___awdiv@sign,w
  3411  0FF2  1903               	btfsc	3,2
  3412  0FF3  2FF5               	goto	u1611
  3413  0FF4  2FF6               	goto	u1610
  3414  0FF5                     u1611:
  3415  0FF5  2FFB               	goto	l1661
  3416  0FF6                     u1610:
  3417  0FF6                     l1659:
  3418  0FF6  09F7               	comf	___awdiv@quotient,f
  3419  0FF7  09F8               	comf	___awdiv@quotient+1,f
  3420  0FF8  0AF7               	incf	___awdiv@quotient,f
  3421  0FF9  1903               	skipnz
  3422  0FFA  0AF8               	incf	___awdiv@quotient+1,f
  3423  0FFB                     l1661:
  3424  0FFB  0878               	movf	___awdiv@quotient+1,w
  3425  0FFC  00F1               	movwf	?___awdiv+1
  3426  0FFD  0877               	movf	___awdiv@quotient,w
  3427  0FFE  00F0               	movwf	?___awdiv
  3428  0FFF                     l430:
  3429  0FFF  0008               	return
  3430  1000                     __end_of___awdiv:
  3431                           
  3432                           	psect	text23
  3433  01DB                     __ptext23:	
  3434 ;; *************** function ___xxtofl *****************
  3435 ;; Defined at:
  3436 ;;		line 10 in file "C:\Program Files\Microchip\xc8\v2.36\pic\sources\c90\common\xxtofl.c"
  3437 ;; Parameters:    Size  Location     Type
  3438 ;;  sign            1    wreg     unsigned char 
  3439 ;;  val             4    4[COMMON] long 
  3440 ;; Auto vars:     Size  Location     Type
  3441 ;;  sign            1    0[BANK0 ] unsigned char 
  3442 ;;  arg             4    2[BANK0 ] unsigned long 
  3443 ;;  exp             1    1[BANK0 ] unsigned char 
  3444 ;; Return value:  Size  Location     Type
  3445 ;;                  4    4[COMMON] unsigned char 
  3446 ;; Registers used:
  3447 ;;		wreg, status,2, status,0
  3448 ;; Tracked objects:
  3449 ;;		On entry : 0/0
  3450 ;;		On exit  : 0/0
  3451 ;;		Unchanged: 0/0
  3452 ;; Data sizes:     COMMON   BANK0   BANK1   BANK3   BANK2
  3453 ;;      Params:         4       0       0       0       0
  3454 ;;      Locals:         0       6       0       0       0
  3455 ;;      Temps:          4       0       0       0       0
  3456 ;;      Totals:         8       6       0       0       0
  3457 ;;Total ram usage:       14 bytes
  3458 ;; Hardware stack levels used: 1
  3459 ;; This function calls:
  3460 ;;		Nothing
  3461 ;; This function is called by:
  3462 ;;		_main
  3463 ;; This function uses a non-reentrant model
  3464 ;;
  3465                           
  3466  01DB                     ___xxtofl:	
  3467                           ;psect for function ___xxtofl
  3468                           
  3469                           
  3470                           ;incstack = 0
  3471                           ; Regs used in ___xxtofl: [wreg+status,2+status,0]
  3472                           ;___xxtofl@sign stored from wreg
  3473  01DB  1283               	bcf	3,5	;RP0=0, select bank0
  3474  01DC  1303               	bcf	3,6	;RP1=0, select bank0
  3475  01DD  00A0               	movwf	___xxtofl@sign
  3476  01DE                     l2057:
  3477  01DE  0820               	movf	___xxtofl@sign,w
  3478  01DF  1903               	btfsc	3,2
  3479  01E0  29E2               	goto	u2511
  3480  01E1  29E3               	goto	u2510
  3481  01E2                     u2511:
  3482  01E2  29F7               	goto	l2063
  3483  01E3                     u2510:
  3484  01E3                     l2059:
  3485  01E3  1FF7               	btfss	___xxtofl@val+3,7
  3486  01E4  29E6               	goto	u2521
  3487  01E5  29E7               	goto	u2520
  3488  01E6                     u2521:
  3489  01E6  29F7               	goto	l2063
  3490  01E7                     u2520:
  3491  01E7                     l2061:
  3492  01E7  0974               	comf	___xxtofl@val,w
  3493  01E8  00A2               	movwf	___xxtofl@arg
  3494  01E9  0975               	comf	___xxtofl@val+1,w
  3495  01EA  00A3               	movwf	___xxtofl@arg+1
  3496  01EB  0976               	comf	___xxtofl@val+2,w
  3497  01EC  00A4               	movwf	___xxtofl@arg+2
  3498  01ED  0977               	comf	___xxtofl@val+3,w
  3499  01EE  00A5               	movwf	___xxtofl@arg+3
  3500  01EF  0AA2               	incf	___xxtofl@arg,f
  3501  01F0  1903               	skipnz
  3502  01F1  0AA3               	incf	___xxtofl@arg+1,f
  3503  01F2  1903               	skipnz
  3504  01F3  0AA4               	incf	___xxtofl@arg+2,f
  3505  01F4  1903               	skipnz
  3506  01F5  0AA5               	incf	___xxtofl@arg+3,f
  3507  01F6  29FF               	goto	l710
  3508  01F7                     l2063:
  3509  01F7  0877               	movf	___xxtofl@val+3,w
  3510  01F8  00A5               	movwf	___xxtofl@arg+3
  3511  01F9  0876               	movf	___xxtofl@val+2,w
  3512  01FA  00A4               	movwf	___xxtofl@arg+2
  3513  01FB  0875               	movf	___xxtofl@val+1,w
  3514  01FC  00A3               	movwf	___xxtofl@arg+1
  3515  01FD  0874               	movf	___xxtofl@val,w
  3516  01FE  00A2               	movwf	___xxtofl@arg
  3517  01FF                     l710:
  3518  01FF  0877               	movf	___xxtofl@val+3,w
  3519  0200  0476               	iorwf	___xxtofl@val+2,w
  3520  0201  0475               	iorwf	___xxtofl@val+1,w
  3521  0202  0474               	iorwf	___xxtofl@val,w
  3522  0203  1D03               	skipz
  3523  0204  2A06               	goto	u2531
  3524  0205  2A07               	goto	u2530
  3525  0206                     u2531:
  3526  0206  2A10               	goto	l2069
  3527  0207                     u2530:
  3528  0207                     l2065:
  3529  0207  3000               	movlw	0
  3530  0208  00F7               	movwf	?___xxtofl+3
  3531  0209  3000               	movlw	0
  3532  020A  00F6               	movwf	?___xxtofl+2
  3533  020B  3000               	movlw	0
  3534  020C  00F5               	movwf	?___xxtofl+1
  3535  020D  3000               	movlw	0
  3536  020E  00F4               	movwf	?___xxtofl
  3537  020F  2A96               	goto	l712
  3538  0210                     l2069:
  3539  0210  3096               	movlw	150
  3540  0211  00F8               	movwf	??___xxtofl
  3541  0212  0878               	movf	??___xxtofl,w
  3542  0213  00A1               	movwf	___xxtofl@exp
  3543  0214  2A22               	goto	l2073
  3544  0215                     l2071:
  3545  0215  3001               	movlw	1
  3546  0216  00F8               	movwf	??___xxtofl
  3547  0217  0878               	movf	??___xxtofl,w
  3548  0218  07A1               	addwf	___xxtofl@exp,f
  3549  0219  3001               	movlw	1
  3550  021A                     u2545:
  3551  021A  1003               	clrc
  3552  021B  0CA5               	rrf	___xxtofl@arg+3,f
  3553  021C  0CA4               	rrf	___xxtofl@arg+2,f
  3554  021D  0CA3               	rrf	___xxtofl@arg+1,f
  3555  021E  0CA2               	rrf	___xxtofl@arg,f
  3556  021F  3EFF               	addlw	-1
  3557  0220  1D03               	skipz
  3558  0221  2A1A               	goto	u2545
  3559  0222                     l2073:
  3560  0222  30FE               	movlw	254
  3561  0223  0525               	andwf	___xxtofl@arg+3,w
  3562  0224  1D03               	btfss	3,2
  3563  0225  2A27               	goto	u2551
  3564  0226  2A28               	goto	u2550
  3565  0227                     u2551:
  3566  0227  2A15               	goto	l2071
  3567  0228                     u2550:
  3568  0228  2A44               	goto	l716
  3569  0229                     l2075:
  3570  0229  3001               	movlw	1
  3571  022A  00F8               	movwf	??___xxtofl
  3572  022B  0878               	movf	??___xxtofl,w
  3573  022C  07A1               	addwf	___xxtofl@exp,f
  3574  022D                     l2077:
  3575  022D  3001               	movlw	1
  3576  022E  07A2               	addwf	___xxtofl@arg,f
  3577  022F  3000               	movlw	0
  3578  0230  1803               	skipnc
  3579  0231  3001               	movlw	1
  3580  0232  07A3               	addwf	___xxtofl@arg+1,f
  3581  0233  3000               	movlw	0
  3582  0234  1803               	skipnc
  3583  0235  3001               	movlw	1
  3584  0236  07A4               	addwf	___xxtofl@arg+2,f
  3585  0237  3000               	movlw	0
  3586  0238  1803               	skipnc
  3587  0239  3001               	movlw	1
  3588  023A  07A5               	addwf	___xxtofl@arg+3,f
  3589  023B                     l2079:
  3590  023B  3001               	movlw	1
  3591  023C                     u2565:
  3592  023C  1003               	clrc
  3593  023D  0CA5               	rrf	___xxtofl@arg+3,f
  3594  023E  0CA4               	rrf	___xxtofl@arg+2,f
  3595  023F  0CA3               	rrf	___xxtofl@arg+1,f
  3596  0240  0CA2               	rrf	___xxtofl@arg,f
  3597  0241  3EFF               	addlw	-1
  3598  0242  1D03               	skipz
  3599  0243  2A3C               	goto	u2565
  3600  0244                     l716:
  3601  0244  30FF               	movlw	255
  3602  0245  0525               	andwf	___xxtofl@arg+3,w
  3603  0246  1D03               	btfss	3,2
  3604  0247  2A49               	goto	u2571
  3605  0248  2A4A               	goto	u2570
  3606  0249                     u2571:
  3607  0249  2A29               	goto	l2075
  3608  024A                     u2570:
  3609  024A  2A56               	goto	l2083
  3610  024B                     l2081:
  3611  024B  3001               	movlw	1
  3612  024C  02A1               	subwf	___xxtofl@exp,f
  3613  024D  3001               	movlw	1
  3614  024E  00F8               	movwf	??___xxtofl
  3615  024F                     u2585:
  3616  024F  1003               	clrc
  3617  0250  0DA2               	rlf	___xxtofl@arg,f
  3618  0251  0DA3               	rlf	___xxtofl@arg+1,f
  3619  0252  0DA4               	rlf	___xxtofl@arg+2,f
  3620  0253  0DA5               	rlf	___xxtofl@arg+3,f
  3621  0254  0BF8               	decfsz	??___xxtofl,f
  3622  0255  2A4F               	goto	u2585
  3623  0256                     l2083:
  3624  0256  1BA4               	btfsc	___xxtofl@arg+2,7
  3625  0257  2A59               	goto	u2591
  3626  0258  2A5A               	goto	u2590
  3627  0259                     u2591:
  3628  0259  2A60               	goto	l723
  3629  025A                     u2590:
  3630  025A                     l2085:
  3631  025A  3002               	movlw	2
  3632  025B  0221               	subwf	___xxtofl@exp,w
  3633  025C  1803               	skipnc
  3634  025D  2A5F               	goto	u2601
  3635  025E  2A60               	goto	u2600
  3636  025F                     u2601:
  3637  025F  2A4B               	goto	l2081
  3638  0260                     u2600:
  3639  0260                     l723:
  3640  0260  1821               	btfsc	___xxtofl@exp,0
  3641  0261  2A63               	goto	u2611
  3642  0262  2A64               	goto	u2610
  3643  0263                     u2611:
  3644  0263  2A6C               	goto	l724
  3645  0264                     u2610:
  3646  0264                     l2087:
  3647  0264  30FF               	movlw	255
  3648  0265  05A2               	andwf	___xxtofl@arg,f
  3649  0266  30FF               	movlw	255
  3650  0267  05A3               	andwf	___xxtofl@arg+1,f
  3651  0268  307F               	movlw	127
  3652  0269  05A4               	andwf	___xxtofl@arg+2,f
  3653  026A  30FF               	movlw	255
  3654  026B  05A5               	andwf	___xxtofl@arg+3,f
  3655  026C                     l724:
  3656  026C  1003               	clrc
  3657  026D  0CA1               	rrf	___xxtofl@exp,f
  3658  026E                     l2089:
  3659  026E  0821               	movf	___xxtofl@exp,w
  3660  026F  00F8               	movwf	??___xxtofl
  3661  0270  01F9               	clrf	??___xxtofl+1
  3662  0271  01FA               	clrf	??___xxtofl+2
  3663  0272  01FB               	clrf	??___xxtofl+3
  3664  0273  3018               	movlw	24
  3665  0274                     u2625:
  3666  0274  1003               	clrc
  3667  0275  0DF8               	rlf	??___xxtofl,f
  3668  0276  0DF9               	rlf	??___xxtofl+1,f
  3669  0277  0DFA               	rlf	??___xxtofl+2,f
  3670  0278  0DFB               	rlf	??___xxtofl+3,f
  3671  0279                     u2620:
  3672  0279  3EFF               	addlw	-1
  3673  027A  1D03               	skipz
  3674  027B  2A74               	goto	u2625
  3675  027C  0878               	movf	??___xxtofl,w
  3676  027D  04A2               	iorwf	___xxtofl@arg,f
  3677  027E  0879               	movf	??___xxtofl+1,w
  3678  027F  04A3               	iorwf	___xxtofl@arg+1,f
  3679  0280  087A               	movf	??___xxtofl+2,w
  3680  0281  04A4               	iorwf	___xxtofl@arg+2,f
  3681  0282  087B               	movf	??___xxtofl+3,w
  3682  0283  04A5               	iorwf	___xxtofl@arg+3,f
  3683  0284                     l2091:
  3684  0284  0820               	movf	___xxtofl@sign,w
  3685  0285  1903               	btfsc	3,2
  3686  0286  2A88               	goto	u2631
  3687  0287  2A89               	goto	u2630
  3688  0288                     u2631:
  3689  0288  2A8E               	goto	l2097
  3690  0289                     u2630:
  3691  0289                     l2093:
  3692  0289  1FF7               	btfss	___xxtofl@val+3,7
  3693  028A  2A8C               	goto	u2641
  3694  028B  2A8D               	goto	u2640
  3695  028C                     u2641:
  3696  028C  2A8E               	goto	l2097
  3697  028D                     u2640:
  3698  028D                     l2095:
  3699  028D  17A5               	bsf	___xxtofl@arg+3,7
  3700  028E                     l2097:
  3701  028E  0825               	movf	___xxtofl@arg+3,w
  3702  028F  00F7               	movwf	?___xxtofl+3
  3703  0290  0824               	movf	___xxtofl@arg+2,w
  3704  0291  00F6               	movwf	?___xxtofl+2
  3705  0292  0823               	movf	___xxtofl@arg+1,w
  3706  0293  00F5               	movwf	?___xxtofl+1
  3707  0294  0822               	movf	___xxtofl@arg,w
  3708  0295  00F4               	movwf	?___xxtofl
  3709  0296                     l712:
  3710  0296  0008               	return
  3711  0297                     __end_of___xxtofl:
  3712                           
  3713                           	psect	text24
  3714  00CA                     __ptext24:	
  3715 ;; *************** function ___fltol *****************
  3716 ;; Defined at:
  3717 ;;		line 43 in file "C:\Program Files\Microchip\xc8\v2.36\pic\sources\c90\common\fltol.c"
  3718 ;; Parameters:    Size  Location     Type
  3719 ;;  f1              4   58[BANK0 ] unsigned char 
  3720 ;; Auto vars:     Size  Location     Type
  3721 ;;  exp1            1   13[COMMON] unsigned char 
  3722 ;;  sign1           1   12[COMMON] unsigned char 
  3723 ;; Return value:  Size  Location     Type
  3724 ;;                  4   58[BANK0 ] long 
  3725 ;; Registers used:
  3726 ;;		wreg, status,2, status,0
  3727 ;; Tracked objects:
  3728 ;;		On entry : 0/0
  3729 ;;		On exit  : 0/0
  3730 ;;		Unchanged: 0/0
  3731 ;; Data sizes:     COMMON   BANK0   BANK1   BANK3   BANK2
  3732 ;;      Params:         0       4       0       0       0
  3733 ;;      Locals:         2       0       0       0       0
  3734 ;;      Temps:          0       5       0       0       0
  3735 ;;      Totals:         2       9       0       0       0
  3736 ;;Total ram usage:       11 bytes
  3737 ;; Hardware stack levels used: 1
  3738 ;; This function calls:
  3739 ;;		Nothing
  3740 ;; This function is called by:
  3741 ;;		_main
  3742 ;; This function uses a non-reentrant model
  3743 ;;
  3744                           
  3745  00CA                     ___fltol:	
  3746                           ;psect for function ___fltol
  3747                           
  3748  00CA                     l1739:	
  3749                           ;incstack = 0
  3750                           ; Regs used in ___fltol: [wreg+status,2+status,0]
  3751                           
  3752  00CA  1003               	clrc
  3753  00CB  1283               	bcf	3,5	;RP0=0, select bank0
  3754  00CC  1303               	bcf	3,6	;RP1=0, select bank0
  3755  00CD  0D5C               	rlf	___fltol@f1+2,w
  3756  00CE  0D5D               	rlf	___fltol@f1+3,w
  3757  00CF  00DE               	movwf	??___fltol
  3758  00D0  085E               	movf	??___fltol,w
  3759  00D1  00FD               	movwf	___fltol@exp1
  3760  00D2  087D               	movf	___fltol@exp1,w
  3761  00D3  1D03               	btfss	3,2
  3762  00D4  28D6               	goto	u1751
  3763  00D5  28D7               	goto	u1750
  3764  00D6                     u1751:
  3765  00D6  28E0               	goto	l1745
  3766  00D7                     u1750:
  3767  00D7                     l1741:
  3768  00D7  3000               	movlw	0
  3769  00D8  00DD               	movwf	?___fltol+3
  3770  00D9  3000               	movlw	0
  3771  00DA  00DC               	movwf	?___fltol+2
  3772  00DB  3000               	movlw	0
  3773  00DC  00DB               	movwf	?___fltol+1
  3774  00DD  3000               	movlw	0
  3775  00DE  00DA               	movwf	?___fltol
  3776  00DF  2945               	goto	l463
  3777  00E0                     l1745:
  3778  00E0  085A               	movf	___fltol@f1,w
  3779  00E1  00DE               	movwf	??___fltol
  3780  00E2  085B               	movf	___fltol@f1+1,w
  3781  00E3  00DF               	movwf	??___fltol+1
  3782  00E4  085C               	movf	___fltol@f1+2,w
  3783  00E5  00E0               	movwf	??___fltol+2
  3784  00E6  085D               	movf	___fltol@f1+3,w
  3785  00E7  00E1               	movwf	??___fltol+3
  3786  00E8  301F               	movlw	31
  3787  00E9                     u1765:
  3788  00E9  1003               	clrc
  3789  00EA  0CE1               	rrf	??___fltol+3,f
  3790  00EB  0CE0               	rrf	??___fltol+2,f
  3791  00EC  0CDF               	rrf	??___fltol+1,f
  3792  00ED  0CDE               	rrf	??___fltol,f
  3793  00EE                     u1760:
  3794  00EE  3EFF               	addlw	-1
  3795  00EF  1D03               	skipz
  3796  00F0  28E9               	goto	u1765
  3797  00F1  085E               	movf	??___fltol,w
  3798  00F2  00E2               	movwf	??___fltol+4
  3799  00F3  0862               	movf	??___fltol+4,w
  3800  00F4  00FC               	movwf	___fltol@sign1
  3801  00F5                     l1747:
  3802  00F5  17DC               	bsf	___fltol@f1+2,7
  3803  00F6                     l1749:
  3804  00F6  30FF               	movlw	255
  3805  00F7  05DA               	andwf	___fltol@f1,f
  3806  00F8  30FF               	movlw	255
  3807  00F9  05DB               	andwf	___fltol@f1+1,f
  3808  00FA  30FF               	movlw	255
  3809  00FB  05DC               	andwf	___fltol@f1+2,f
  3810  00FC  3000               	movlw	0
  3811  00FD  05DD               	andwf	___fltol@f1+3,f
  3812  00FE                     l1751:
  3813  00FE  3096               	movlw	150
  3814  00FF  02FD               	subwf	___fltol@exp1,f
  3815  0100                     l1753:
  3816  0100  1FFD               	btfss	___fltol@exp1,7
  3817  0101  2903               	goto	u1771
  3818  0102  2904               	goto	u1770
  3819  0103                     u1771:
  3820  0103  291E               	goto	l1763
  3821  0104                     u1770:
  3822  0104                     l1755:
  3823  0104  087D               	movf	___fltol@exp1,w
  3824  0105  3A80               	xorlw	128
  3825  0106  3E97               	addlw	151
  3826  0107  1803               	skipnc
  3827  0108  290A               	goto	u1781
  3828  0109  290B               	goto	u1780
  3829  010A                     u1781:
  3830  010A  290C               	goto	l1761
  3831  010B                     u1780:
  3832  010B  28D7               	goto	l1741
  3833  010C                     l1761:
  3834  010C  3001               	movlw	1
  3835  010D                     u1795:
  3836  010D  1003               	clrc
  3837  010E  0CDD               	rrf	___fltol@f1+3,f
  3838  010F  0CDC               	rrf	___fltol@f1+2,f
  3839  0110  0CDB               	rrf	___fltol@f1+1,f
  3840  0111  0CDA               	rrf	___fltol@f1,f
  3841  0112  3EFF               	addlw	-1
  3842  0113  1D03               	skipz
  3843  0114  290D               	goto	u1795
  3844  0115  3001               	movlw	1
  3845  0116  00DE               	movwf	??___fltol
  3846  0117  085E               	movf	??___fltol,w
  3847  0118  07FD               	addwf	___fltol@exp1,f
  3848  0119  1D03               	btfss	3,2
  3849  011A  291C               	goto	u1801
  3850  011B  291D               	goto	u1800
  3851  011C                     u1801:
  3852  011C  290C               	goto	l1761
  3853  011D                     u1800:
  3854  011D  2935               	goto	l1771
  3855  011E                     l1763:
  3856  011E  3020               	movlw	32
  3857  011F  027D               	subwf	___fltol@exp1,w
  3858  0120  1C03               	skipc
  3859  0121  2923               	goto	u1811
  3860  0122  2924               	goto	u1810
  3861  0123                     u1811:
  3862  0123  2930               	goto	l470
  3863  0124                     u1810:
  3864  0124  28D7               	goto	l1741
  3865  0125                     l1769:
  3866  0125  3001               	movlw	1
  3867  0126  00DE               	movwf	??___fltol
  3868  0127                     u1825:
  3869  0127  1003               	clrc
  3870  0128  0DDA               	rlf	___fltol@f1,f
  3871  0129  0DDB               	rlf	___fltol@f1+1,f
  3872  012A  0DDC               	rlf	___fltol@f1+2,f
  3873  012B  0DDD               	rlf	___fltol@f1+3,f
  3874  012C  0BDE               	decfsz	??___fltol,f
  3875  012D  2927               	goto	u1825
  3876  012E  3001               	movlw	1
  3877  012F  02FD               	subwf	___fltol@exp1,f
  3878  0130                     l470:
  3879  0130  087D               	movf	___fltol@exp1,w
  3880  0131  1D03               	btfss	3,2
  3881  0132  2934               	goto	u1831
  3882  0133  2935               	goto	u1830
  3883  0134                     u1831:
  3884  0134  2925               	goto	l1769
  3885  0135                     u1830:
  3886  0135                     l1771:
  3887  0135  087C               	movf	___fltol@sign1,w
  3888  0136  1903               	btfsc	3,2
  3889  0137  2939               	goto	u1841
  3890  0138  293A               	goto	u1840
  3891  0139                     u1841:
  3892  0139  2945               	goto	l473
  3893  013A                     u1840:
  3894  013A                     l1773:
  3895  013A  09DA               	comf	___fltol@f1,f
  3896  013B  09DB               	comf	___fltol@f1+1,f
  3897  013C  09DC               	comf	___fltol@f1+2,f
  3898  013D  09DD               	comf	___fltol@f1+3,f
  3899  013E  0ADA               	incf	___fltol@f1,f
  3900  013F  1903               	skipnz
  3901  0140  0ADB               	incf	___fltol@f1+1,f
  3902  0141  1903               	skipnz
  3903  0142  0ADC               	incf	___fltol@f1+2,f
  3904  0143  1903               	skipnz
  3905  0144  0ADD               	incf	___fltol@f1+3,f
  3906  0145                     l473:
  3907  0145                     l463:
  3908  0145  0008               	return
  3909  0146                     __end_of___fltol:
  3910                           
  3911                           	psect	text25
  3912  0474                     __ptext25:	
  3913 ;; *************** function ___flmul *****************
  3914 ;; Defined at:
  3915 ;;		line 8 in file "C:\Program Files\Microchip\xc8\v2.36\pic\sources\c90\common\sprcmul.c"
  3916 ;; Parameters:    Size  Location     Type
  3917 ;;  b               4   32[BANK0 ] long 
  3918 ;;  a               4   36[BANK0 ] long 
  3919 ;; Auto vars:     Size  Location     Type
  3920 ;;  prod            4   52[BANK0 ] struct .
  3921 ;;  grs             4   46[BANK0 ] unsigned long 
  3922 ;;  temp            2   56[BANK0 ] struct .
  3923 ;;  bexp            1   51[BANK0 ] unsigned char 
  3924 ;;  aexp            1   50[BANK0 ] unsigned char 
  3925 ;;  sign            1   45[BANK0 ] unsigned char 
  3926 ;; Return value:  Size  Location     Type
  3927 ;;                  4   32[BANK0 ] unsigned char 
  3928 ;; Registers used:
  3929 ;;		wreg, status,2, status,0, btemp+1, pclath, cstack
  3930 ;; Tracked objects:
  3931 ;;		On entry : 0/0
  3932 ;;		On exit  : 0/0
  3933 ;;		Unchanged: 0/0
  3934 ;; Data sizes:     COMMON   BANK0   BANK1   BANK3   BANK2
  3935 ;;      Params:         0       8       0       0       0
  3936 ;;      Locals:         0      13       0       0       0
  3937 ;;      Temps:          0       5       0       0       0
  3938 ;;      Totals:         0      26       0       0       0
  3939 ;;Total ram usage:       26 bytes
  3940 ;; Hardware stack levels used: 1
  3941 ;; Hardware stack levels required when called: 1
  3942 ;; This function calls:
  3943 ;;		__Umul8_16
  3944 ;; This function is called by:
  3945 ;;		_main
  3946 ;; This function uses a non-reentrant model
  3947 ;;
  3948                           
  3949  0474                     ___flmul:	
  3950                           ;psect for function ___flmul
  3951                           
  3952  0474                     l1917:	
  3953                           ;incstack = 0
  3954                           ; Regs used in ___flmul: [wreg+status,2+status,0+btemp+1+pclath+cstack]
  3955                           
  3956  0474  1283               	bcf	3,5	;RP0=0, select bank0
  3957  0475  1303               	bcf	3,6	;RP1=0, select bank0
  3958  0476  0843               	movf	___flmul@b+3,w
  3959  0477  3980               	andlw	128
  3960  0478  00C8               	movwf	??___flmul
  3961  0479  0848               	movf	??___flmul,w
  3962  047A  00CD               	movwf	___flmul@sign
  3963  047B                     l1919:
  3964  047B  0843               	movf	___flmul@b+3,w
  3965  047C  00C8               	movwf	??___flmul
  3966  047D  0748               	addwf	??___flmul,w
  3967  047E  00C9               	movwf	??___flmul+1
  3968  047F  0849               	movf	??___flmul+1,w
  3969  0480  00D3               	movwf	___flmul@bexp
  3970  0481                     l1921:
  3971  0481  1FC2               	btfss	___flmul@b+2,7
  3972  0482  2C84               	goto	u2141
  3973  0483  2C85               	goto	u2140
  3974  0484                     u2141:
  3975  0484  2C86               	goto	l1925
  3976  0485                     u2140:
  3977  0485                     l1923:
  3978  0485  1453               	bsf	___flmul@bexp,0
  3979  0486                     l1925:
  3980  0486  0853               	movf	___flmul@bexp,w
  3981  0487  1903               	btfsc	3,2
  3982  0488  2C8A               	goto	u2151
  3983  0489  2C8B               	goto	u2150
  3984  048A                     u2151:
  3985  048A  2C9A               	goto	l1933
  3986  048B                     u2150:
  3987  048B                     l1927:
  3988  048B  0A53               	incf	___flmul@bexp,w
  3989  048C  1D03               	btfss	3,2
  3990  048D  2C8F               	goto	u2161
  3991  048E  2C90               	goto	u2160
  3992  048F                     u2161:
  3993  048F  2C98               	goto	l1931
  3994  0490                     u2160:
  3995  0490                     l1929:
  3996  0490  3000               	movlw	0
  3997  0491  00C3               	movwf	___flmul@b+3
  3998  0492  3000               	movlw	0
  3999  0493  00C2               	movwf	___flmul@b+2
  4000  0494  3000               	movlw	0
  4001  0495  00C1               	movwf	___flmul@b+1
  4002  0496  3000               	movlw	0
  4003  0497  00C0               	movwf	___flmul@b
  4004  0498                     l1931:
  4005  0498  17C2               	bsf	___flmul@b+2,7
  4006  0499  2CA2               	goto	l1935
  4007  049A                     l1933:
  4008  049A  3000               	movlw	0
  4009  049B  00C3               	movwf	___flmul@b+3
  4010  049C  3000               	movlw	0
  4011  049D  00C2               	movwf	___flmul@b+2
  4012  049E  3000               	movlw	0
  4013  049F  00C1               	movwf	___flmul@b+1
  4014  04A0  3000               	movlw	0
  4015  04A1  00C0               	movwf	___flmul@b
  4016  04A2                     l1935:
  4017  04A2  0847               	movf	___flmul@a+3,w
  4018  04A3  3980               	andlw	128
  4019  04A4  00C8               	movwf	??___flmul
  4020  04A5  0848               	movf	??___flmul,w
  4021  04A6  06CD               	xorwf	___flmul@sign,f
  4022  04A7                     l1937:
  4023  04A7  0847               	movf	___flmul@a+3,w
  4024  04A8  00C8               	movwf	??___flmul
  4025  04A9  0748               	addwf	??___flmul,w
  4026  04AA  00C9               	movwf	??___flmul+1
  4027  04AB  0849               	movf	??___flmul+1,w
  4028  04AC  00D2               	movwf	___flmul@aexp
  4029  04AD                     l1939:
  4030  04AD  1FC6               	btfss	___flmul@a+2,7
  4031  04AE  2CB0               	goto	u2171
  4032  04AF  2CB1               	goto	u2170
  4033  04B0                     u2171:
  4034  04B0  2CB2               	goto	l1943
  4035  04B1                     u2170:
  4036  04B1                     l1941:
  4037  04B1  1452               	bsf	___flmul@aexp,0
  4038  04B2                     l1943:
  4039  04B2  0852               	movf	___flmul@aexp,w
  4040  04B3  1903               	btfsc	3,2
  4041  04B4  2CB6               	goto	u2181
  4042  04B5  2CB7               	goto	u2180
  4043  04B6                     u2181:
  4044  04B6  2CC6               	goto	l1951
  4045  04B7                     u2180:
  4046  04B7                     l1945:
  4047  04B7  0A52               	incf	___flmul@aexp,w
  4048  04B8  1D03               	btfss	3,2
  4049  04B9  2CBB               	goto	u2191
  4050  04BA  2CBC               	goto	u2190
  4051  04BB                     u2191:
  4052  04BB  2CC4               	goto	l1949
  4053  04BC                     u2190:
  4054  04BC                     l1947:
  4055  04BC  3000               	movlw	0
  4056  04BD  00C7               	movwf	___flmul@a+3
  4057  04BE  3000               	movlw	0
  4058  04BF  00C6               	movwf	___flmul@a+2
  4059  04C0  3000               	movlw	0
  4060  04C1  00C5               	movwf	___flmul@a+1
  4061  04C2  3000               	movlw	0
  4062  04C3  00C4               	movwf	___flmul@a
  4063  04C4                     l1949:
  4064  04C4  17C6               	bsf	___flmul@a+2,7
  4065  04C5  2CCE               	goto	l1953
  4066  04C6                     l1951:
  4067  04C6  3000               	movlw	0
  4068  04C7  00C7               	movwf	___flmul@a+3
  4069  04C8  3000               	movlw	0
  4070  04C9  00C6               	movwf	___flmul@a+2
  4071  04CA  3000               	movlw	0
  4072  04CB  00C5               	movwf	___flmul@a+1
  4073  04CC  3000               	movlw	0
  4074  04CD  00C4               	movwf	___flmul@a
  4075  04CE                     l1953:
  4076  04CE  0852               	movf	___flmul@aexp,w
  4077  04CF  1903               	btfsc	3,2
  4078  04D0  2CD2               	goto	u2201
  4079  04D1  2CD3               	goto	u2200
  4080  04D2                     u2201:
  4081  04D2  2CD8               	goto	l1957
  4082  04D3                     u2200:
  4083  04D3                     l1955:
  4084  04D3  0853               	movf	___flmul@bexp,w
  4085  04D4  1D03               	btfss	3,2
  4086  04D5  2CD7               	goto	u2211
  4087  04D6  2CD8               	goto	u2210
  4088  04D7                     u2211:
  4089  04D7  2CE1               	goto	l1961
  4090  04D8                     u2210:
  4091  04D8                     l1957:
  4092  04D8  3000               	movlw	0
  4093  04D9  00C3               	movwf	?___flmul+3
  4094  04DA  3000               	movlw	0
  4095  04DB  00C2               	movwf	?___flmul+2
  4096  04DC  3000               	movlw	0
  4097  04DD  00C1               	movwf	?___flmul+1
  4098  04DE  3000               	movlw	0
  4099  04DF  00C0               	movwf	?___flmul
  4100  04E0  2FD4               	goto	l666
  4101  04E1                     l1961:
  4102  04E1  0840               	movf	___flmul@b,w
  4103  04E2  00C8               	movwf	??___flmul
  4104  04E3  0848               	movf	??___flmul,w
  4105  04E4  00F0               	movwf	__Umul8_16@multiplicand
  4106  04E5  0846               	movf	___flmul@a+2,w
  4107  04E6  120A  158A  254B  120A  118A  	fcall	__Umul8_16
  4108  04EB  0871               	movf	?__Umul8_16+1,w
  4109  04EC  1283               	bcf	3,5	;RP0=0, select bank0
  4110  04ED  1303               	bcf	3,6	;RP1=0, select bank0
  4111  04EE  00D9               	movwf	___flmul@temp+1
  4112  04EF  0870               	movf	?__Umul8_16,w
  4113  04F0  00D8               	movwf	___flmul@temp
  4114  04F1                     l1963:
  4115  04F1  0858               	movf	___flmul@temp,w
  4116  04F2  00C8               	movwf	??___flmul
  4117  04F3  01C9               	clrf	??___flmul+1
  4118  04F4  01CA               	clrf	??___flmul+2
  4119  04F5  01CB               	clrf	??___flmul+3
  4120  04F6  084B               	movf	??___flmul+3,w
  4121  04F7  00D1               	movwf	___flmul@grs+3
  4122  04F8  084A               	movf	??___flmul+2,w
  4123  04F9  00D0               	movwf	___flmul@grs+2
  4124  04FA  0849               	movf	??___flmul+1,w
  4125  04FB  00CF               	movwf	___flmul@grs+1
  4126  04FC  0848               	movf	??___flmul,w
  4127  04FD  00CE               	movwf	___flmul@grs
  4128  04FE                     l1965:
  4129  04FE  0859               	movf	___flmul@temp+1,w
  4130  04FF  00C8               	movwf	??___flmul
  4131  0500  01C9               	clrf	??___flmul+1
  4132  0501  01CA               	clrf	??___flmul+2
  4133  0502  01CB               	clrf	??___flmul+3
  4134  0503  084B               	movf	??___flmul+3,w
  4135  0504  00D7               	movwf	___flmul@prod+3
  4136  0505  084A               	movf	??___flmul+2,w
  4137  0506  00D6               	movwf	___flmul@prod+2
  4138  0507  0849               	movf	??___flmul+1,w
  4139  0508  00D5               	movwf	___flmul@prod+1
  4140  0509  0848               	movf	??___flmul,w
  4141  050A  00D4               	movwf	___flmul@prod
  4142  050B  0841               	movf	___flmul@b+1,w
  4143  050C  00C8               	movwf	??___flmul
  4144  050D  0848               	movf	??___flmul,w
  4145  050E  00F0               	movwf	__Umul8_16@multiplicand
  4146  050F  0845               	movf	___flmul@a+1,w
  4147  0510  120A  158A  254B  120A  118A  	fcall	__Umul8_16
  4148  0515  0871               	movf	?__Umul8_16+1,w
  4149  0516  1283               	bcf	3,5	;RP0=0, select bank0
  4150  0517  1303               	bcf	3,6	;RP1=0, select bank0
  4151  0518  00D9               	movwf	___flmul@temp+1
  4152  0519  0870               	movf	?__Umul8_16,w
  4153  051A  00D8               	movwf	___flmul@temp
  4154  051B                     l1967:
  4155  051B  0858               	movf	___flmul@temp,w
  4156  051C  00C8               	movwf	??___flmul
  4157  051D  01C9               	clrf	??___flmul+1
  4158  051E  01CA               	clrf	??___flmul+2
  4159  051F  01CB               	clrf	??___flmul+3
  4160  0520  0848               	movf	??___flmul,w
  4161  0521  07CE               	addwf	___flmul@grs,f
  4162  0522  0849               	movf	??___flmul+1,w
  4163  0523  1103               	clrz
  4164  0524  1803               	skipnc
  4165  0525  3E01               	addlw	1
  4166  0526  1903               	skipnz
  4167  0527  2D29               	goto	u2221
  4168  0528  07CF               	addwf	___flmul@grs+1,f
  4169  0529                     u2221:
  4170  0529  084A               	movf	??___flmul+2,w
  4171  052A  1103               	clrz
  4172  052B  1803               	skipnc
  4173  052C  3E01               	addlw	1
  4174  052D  1903               	skipnz
  4175  052E  2D30               	goto	u2222
  4176  052F  07D0               	addwf	___flmul@grs+2,f
  4177  0530                     u2222:
  4178  0530  084B               	movf	??___flmul+3,w
  4179  0531  1103               	clrz
  4180  0532  1803               	skipnc
  4181  0533  3E01               	addlw	1
  4182  0534  1903               	skipnz
  4183  0535  2D37               	goto	u2223
  4184  0536  07D1               	addwf	___flmul@grs+3,f
  4185  0537                     u2223:
  4186  0537                     l1969:
  4187  0537  0859               	movf	___flmul@temp+1,w
  4188  0538  00C8               	movwf	??___flmul
  4189  0539  01C9               	clrf	??___flmul+1
  4190  053A  01CA               	clrf	??___flmul+2
  4191  053B  01CB               	clrf	??___flmul+3
  4192  053C  0848               	movf	??___flmul,w
  4193  053D  07D4               	addwf	___flmul@prod,f
  4194  053E  0849               	movf	??___flmul+1,w
  4195  053F  1103               	clrz
  4196  0540  1803               	skipnc
  4197  0541  3E01               	addlw	1
  4198  0542  1903               	skipnz
  4199  0543  2D45               	goto	u2231
  4200  0544  07D5               	addwf	___flmul@prod+1,f
  4201  0545                     u2231:
  4202  0545  084A               	movf	??___flmul+2,w
  4203  0546  1103               	clrz
  4204  0547  1803               	skipnc
  4205  0548  3E01               	addlw	1
  4206  0549  1903               	skipnz
  4207  054A  2D4C               	goto	u2232
  4208  054B  07D6               	addwf	___flmul@prod+2,f
  4209  054C                     u2232:
  4210  054C  084B               	movf	??___flmul+3,w
  4211  054D  1103               	clrz
  4212  054E  1803               	skipnc
  4213  054F  3E01               	addlw	1
  4214  0550  1903               	skipnz
  4215  0551  2D53               	goto	u2233
  4216  0552  07D7               	addwf	___flmul@prod+3,f
  4217  0553                     u2233:
  4218  0553  0842               	movf	___flmul@b+2,w
  4219  0554  00C8               	movwf	??___flmul
  4220  0555  0848               	movf	??___flmul,w
  4221  0556  00F0               	movwf	__Umul8_16@multiplicand
  4222  0557  0844               	movf	___flmul@a,w
  4223  0558  120A  158A  254B  120A  118A  	fcall	__Umul8_16
  4224  055D  0871               	movf	?__Umul8_16+1,w
  4225  055E  1283               	bcf	3,5	;RP0=0, select bank0
  4226  055F  1303               	bcf	3,6	;RP1=0, select bank0
  4227  0560  00D9               	movwf	___flmul@temp+1
  4228  0561  0870               	movf	?__Umul8_16,w
  4229  0562  00D8               	movwf	___flmul@temp
  4230  0563                     l1971:
  4231  0563  0858               	movf	___flmul@temp,w
  4232  0564  00C8               	movwf	??___flmul
  4233  0565  01C9               	clrf	??___flmul+1
  4234  0566  01CA               	clrf	??___flmul+2
  4235  0567  01CB               	clrf	??___flmul+3
  4236  0568  0848               	movf	??___flmul,w
  4237  0569  07CE               	addwf	___flmul@grs,f
  4238  056A  0849               	movf	??___flmul+1,w
  4239  056B  1103               	clrz
  4240  056C  1803               	skipnc
  4241  056D  3E01               	addlw	1
  4242  056E  1903               	skipnz
  4243  056F  2D71               	goto	u2241
  4244  0570  07CF               	addwf	___flmul@grs+1,f
  4245  0571                     u2241:
  4246  0571  084A               	movf	??___flmul+2,w
  4247  0572  1103               	clrz
  4248  0573  1803               	skipnc
  4249  0574  3E01               	addlw	1
  4250  0575  1903               	skipnz
  4251  0576  2D78               	goto	u2242
  4252  0577  07D0               	addwf	___flmul@grs+2,f
  4253  0578                     u2242:
  4254  0578  084B               	movf	??___flmul+3,w
  4255  0579  1103               	clrz
  4256  057A  1803               	skipnc
  4257  057B  3E01               	addlw	1
  4258  057C  1903               	skipnz
  4259  057D  2D7F               	goto	u2243
  4260  057E  07D1               	addwf	___flmul@grs+3,f
  4261  057F                     u2243:
  4262  057F                     l1973:
  4263  057F  0859               	movf	___flmul@temp+1,w
  4264  0580  00C8               	movwf	??___flmul
  4265  0581  01C9               	clrf	??___flmul+1
  4266  0582  01CA               	clrf	??___flmul+2
  4267  0583  01CB               	clrf	??___flmul+3
  4268  0584  0848               	movf	??___flmul,w
  4269  0585  07D4               	addwf	___flmul@prod,f
  4270  0586  0849               	movf	??___flmul+1,w
  4271  0587  1103               	clrz
  4272  0588  1803               	skipnc
  4273  0589  3E01               	addlw	1
  4274  058A  1903               	skipnz
  4275  058B  2D8D               	goto	u2251
  4276  058C  07D5               	addwf	___flmul@prod+1,f
  4277  058D                     u2251:
  4278  058D  084A               	movf	??___flmul+2,w
  4279  058E  1103               	clrz
  4280  058F  1803               	skipnc
  4281  0590  3E01               	addlw	1
  4282  0591  1903               	skipnz
  4283  0592  2D94               	goto	u2252
  4284  0593  07D6               	addwf	___flmul@prod+2,f
  4285  0594                     u2252:
  4286  0594  084B               	movf	??___flmul+3,w
  4287  0595  1103               	clrz
  4288  0596  1803               	skipnc
  4289  0597  3E01               	addlw	1
  4290  0598  1903               	skipnz
  4291  0599  2D9B               	goto	u2253
  4292  059A  07D7               	addwf	___flmul@prod+3,f
  4293  059B                     u2253:
  4294  059B                     l1975:
  4295  059B  3008               	movlw	8
  4296  059C  00C8               	movwf	??___flmul
  4297  059D                     u2265:
  4298  059D  1003               	clrc
  4299  059E  0DCE               	rlf	___flmul@grs,f
  4300  059F  0DCF               	rlf	___flmul@grs+1,f
  4301  05A0  0DD0               	rlf	___flmul@grs+2,f
  4302  05A1  0DD1               	rlf	___flmul@grs+3,f
  4303  05A2  0BC8               	decfsz	??___flmul,f
  4304  05A3  2D9D               	goto	u2265
  4305  05A4                     l1977:
  4306  05A4  0841               	movf	___flmul@b+1,w
  4307  05A5  00C8               	movwf	??___flmul
  4308  05A6  0848               	movf	??___flmul,w
  4309  05A7  00F0               	movwf	__Umul8_16@multiplicand
  4310  05A8  0844               	movf	___flmul@a,w
  4311  05A9  120A  158A  254B  120A  118A  	fcall	__Umul8_16
  4312  05AE  0871               	movf	?__Umul8_16+1,w
  4313  05AF  1283               	bcf	3,5	;RP0=0, select bank0
  4314  05B0  1303               	bcf	3,6	;RP1=0, select bank0
  4315  05B1  00D9               	movwf	___flmul@temp+1
  4316  05B2  0870               	movf	?__Umul8_16,w
  4317  05B3  00D8               	movwf	___flmul@temp
  4318  05B4                     l1979:
  4319  05B4  0858               	movf	___flmul@temp,w
  4320  05B5  00C8               	movwf	??___flmul
  4321  05B6  0859               	movf	___flmul@temp+1,w
  4322  05B7  00C9               	movwf	??___flmul+1
  4323  05B8  01CA               	clrf	??___flmul+2
  4324  05B9  01CB               	clrf	??___flmul+3
  4325  05BA  0848               	movf	??___flmul,w
  4326  05BB  07CE               	addwf	___flmul@grs,f
  4327  05BC  0849               	movf	??___flmul+1,w
  4328  05BD  1103               	clrz
  4329  05BE  1803               	skipnc
  4330  05BF  3E01               	addlw	1
  4331  05C0  1903               	skipnz
  4332  05C1  2DC3               	goto	u2271
  4333  05C2  07CF               	addwf	___flmul@grs+1,f
  4334  05C3                     u2271:
  4335  05C3  084A               	movf	??___flmul+2,w
  4336  05C4  1103               	clrz
  4337  05C5  1803               	skipnc
  4338  05C6  3E01               	addlw	1
  4339  05C7  1903               	skipnz
  4340  05C8  2DCA               	goto	u2272
  4341  05C9  07D0               	addwf	___flmul@grs+2,f
  4342  05CA                     u2272:
  4343  05CA  084B               	movf	??___flmul+3,w
  4344  05CB  1103               	clrz
  4345  05CC  1803               	skipnc
  4346  05CD  3E01               	addlw	1
  4347  05CE  1903               	skipnz
  4348  05CF  2DD1               	goto	u2273
  4349  05D0  07D1               	addwf	___flmul@grs+3,f
  4350  05D1                     u2273:
  4351  05D1                     l1981:
  4352  05D1  0840               	movf	___flmul@b,w
  4353  05D2  00C8               	movwf	??___flmul
  4354  05D3  0848               	movf	??___flmul,w
  4355  05D4  00F0               	movwf	__Umul8_16@multiplicand
  4356  05D5  0845               	movf	___flmul@a+1,w
  4357  05D6  120A  158A  254B  120A  118A  	fcall	__Umul8_16
  4358  05DB  0871               	movf	?__Umul8_16+1,w
  4359  05DC  1283               	bcf	3,5	;RP0=0, select bank0
  4360  05DD  1303               	bcf	3,6	;RP1=0, select bank0
  4361  05DE  00D9               	movwf	___flmul@temp+1
  4362  05DF  0870               	movf	?__Umul8_16,w
  4363  05E0  00D8               	movwf	___flmul@temp
  4364  05E1                     l1983:
  4365  05E1  0858               	movf	___flmul@temp,w
  4366  05E2  00C8               	movwf	??___flmul
  4367  05E3  0859               	movf	___flmul@temp+1,w
  4368  05E4  00C9               	movwf	??___flmul+1
  4369  05E5  01CA               	clrf	??___flmul+2
  4370  05E6  01CB               	clrf	??___flmul+3
  4371  05E7  0848               	movf	??___flmul,w
  4372  05E8  07CE               	addwf	___flmul@grs,f
  4373  05E9  0849               	movf	??___flmul+1,w
  4374  05EA  1103               	clrz
  4375  05EB  1803               	skipnc
  4376  05EC  3E01               	addlw	1
  4377  05ED  1903               	skipnz
  4378  05EE  2DF0               	goto	u2281
  4379  05EF  07CF               	addwf	___flmul@grs+1,f
  4380  05F0                     u2281:
  4381  05F0  084A               	movf	??___flmul+2,w
  4382  05F1  1103               	clrz
  4383  05F2  1803               	skipnc
  4384  05F3  3E01               	addlw	1
  4385  05F4  1903               	skipnz
  4386  05F5  2DF7               	goto	u2282
  4387  05F6  07D0               	addwf	___flmul@grs+2,f
  4388  05F7                     u2282:
  4389  05F7  084B               	movf	??___flmul+3,w
  4390  05F8  1103               	clrz
  4391  05F9  1803               	skipnc
  4392  05FA  3E01               	addlw	1
  4393  05FB  1903               	skipnz
  4394  05FC  2DFE               	goto	u2283
  4395  05FD  07D1               	addwf	___flmul@grs+3,f
  4396  05FE                     u2283:
  4397  05FE                     l1985:
  4398  05FE  3008               	movlw	8
  4399  05FF  00C8               	movwf	??___flmul
  4400  0600                     u2295:
  4401  0600  1003               	clrc
  4402  0601  0DCE               	rlf	___flmul@grs,f
  4403  0602  0DCF               	rlf	___flmul@grs+1,f
  4404  0603  0DD0               	rlf	___flmul@grs+2,f
  4405  0604  0DD1               	rlf	___flmul@grs+3,f
  4406  0605  0BC8               	decfsz	??___flmul,f
  4407  0606  2E00               	goto	u2295
  4408  0607  0840               	movf	___flmul@b,w
  4409  0608  00C8               	movwf	??___flmul
  4410  0609  0848               	movf	??___flmul,w
  4411  060A  00F0               	movwf	__Umul8_16@multiplicand
  4412  060B  0844               	movf	___flmul@a,w
  4413  060C  120A  158A  254B  120A  118A  	fcall	__Umul8_16
  4414  0611  0871               	movf	?__Umul8_16+1,w
  4415  0612  1283               	bcf	3,5	;RP0=0, select bank0
  4416  0613  1303               	bcf	3,6	;RP1=0, select bank0
  4417  0614  00D9               	movwf	___flmul@temp+1
  4418  0615  0870               	movf	?__Umul8_16,w
  4419  0616  00D8               	movwf	___flmul@temp
  4420  0617                     l1987:
  4421  0617  0858               	movf	___flmul@temp,w
  4422  0618  00C8               	movwf	??___flmul
  4423  0619  0859               	movf	___flmul@temp+1,w
  4424  061A  00C9               	movwf	??___flmul+1
  4425  061B  01CA               	clrf	??___flmul+2
  4426  061C  01CB               	clrf	??___flmul+3
  4427  061D  0848               	movf	??___flmul,w
  4428  061E  07CE               	addwf	___flmul@grs,f
  4429  061F  0849               	movf	??___flmul+1,w
  4430  0620  1103               	clrz
  4431  0621  1803               	skipnc
  4432  0622  3E01               	addlw	1
  4433  0623  1903               	skipnz
  4434  0624  2E26               	goto	u2301
  4435  0625  07CF               	addwf	___flmul@grs+1,f
  4436  0626                     u2301:
  4437  0626  084A               	movf	??___flmul+2,w
  4438  0627  1103               	clrz
  4439  0628  1803               	skipnc
  4440  0629  3E01               	addlw	1
  4441  062A  1903               	skipnz
  4442  062B  2E2D               	goto	u2302
  4443  062C  07D0               	addwf	___flmul@grs+2,f
  4444  062D                     u2302:
  4445  062D  084B               	movf	??___flmul+3,w
  4446  062E  1103               	clrz
  4447  062F  1803               	skipnc
  4448  0630  3E01               	addlw	1
  4449  0631  1903               	skipnz
  4450  0632  2E34               	goto	u2303
  4451  0633  07D1               	addwf	___flmul@grs+3,f
  4452  0634                     u2303:
  4453  0634                     l1989:
  4454  0634  0841               	movf	___flmul@b+1,w
  4455  0635  00C8               	movwf	??___flmul
  4456  0636  0848               	movf	??___flmul,w
  4457  0637  00F0               	movwf	__Umul8_16@multiplicand
  4458  0638  0846               	movf	___flmul@a+2,w
  4459  0639  120A  158A  254B  120A  118A  	fcall	__Umul8_16
  4460  063E  0871               	movf	?__Umul8_16+1,w
  4461  063F  1283               	bcf	3,5	;RP0=0, select bank0
  4462  0640  1303               	bcf	3,6	;RP1=0, select bank0
  4463  0641  00D9               	movwf	___flmul@temp+1
  4464  0642  0870               	movf	?__Umul8_16,w
  4465  0643  00D8               	movwf	___flmul@temp
  4466  0644  0858               	movf	___flmul@temp,w
  4467  0645  00C8               	movwf	??___flmul
  4468  0646  0859               	movf	___flmul@temp+1,w
  4469  0647  00C9               	movwf	??___flmul+1
  4470  0648  01CA               	clrf	??___flmul+2
  4471  0649  01CB               	clrf	??___flmul+3
  4472  064A  0848               	movf	??___flmul,w
  4473  064B  07D4               	addwf	___flmul@prod,f
  4474  064C  0849               	movf	??___flmul+1,w
  4475  064D  1103               	clrz
  4476  064E  1803               	skipnc
  4477  064F  3E01               	addlw	1
  4478  0650  1903               	skipnz
  4479  0651  2E53               	goto	u2311
  4480  0652  07D5               	addwf	___flmul@prod+1,f
  4481  0653                     u2311:
  4482  0653  084A               	movf	??___flmul+2,w
  4483  0654  1103               	clrz
  4484  0655  1803               	skipnc
  4485  0656  3E01               	addlw	1
  4486  0657  1903               	skipnz
  4487  0658  2E5A               	goto	u2312
  4488  0659  07D6               	addwf	___flmul@prod+2,f
  4489  065A                     u2312:
  4490  065A  084B               	movf	??___flmul+3,w
  4491  065B  1103               	clrz
  4492  065C  1803               	skipnc
  4493  065D  3E01               	addlw	1
  4494  065E  1903               	skipnz
  4495  065F  2E61               	goto	u2313
  4496  0660  07D7               	addwf	___flmul@prod+3,f
  4497  0661                     u2313:
  4498  0661                     l1991:
  4499  0661  0842               	movf	___flmul@b+2,w
  4500  0662  00C8               	movwf	??___flmul
  4501  0663  0848               	movf	??___flmul,w
  4502  0664  00F0               	movwf	__Umul8_16@multiplicand
  4503  0665  0845               	movf	___flmul@a+1,w
  4504  0666  120A  158A  254B  120A  118A  	fcall	__Umul8_16
  4505  066B  0871               	movf	?__Umul8_16+1,w
  4506  066C  1283               	bcf	3,5	;RP0=0, select bank0
  4507  066D  1303               	bcf	3,6	;RP1=0, select bank0
  4508  066E  00D9               	movwf	___flmul@temp+1
  4509  066F  0870               	movf	?__Umul8_16,w
  4510  0670  00D8               	movwf	___flmul@temp
  4511  0671                     l1993:
  4512  0671  0858               	movf	___flmul@temp,w
  4513  0672  00C8               	movwf	??___flmul
  4514  0673  0859               	movf	___flmul@temp+1,w
  4515  0674  00C9               	movwf	??___flmul+1
  4516  0675  01CA               	clrf	??___flmul+2
  4517  0676  01CB               	clrf	??___flmul+3
  4518  0677  0848               	movf	??___flmul,w
  4519  0678  07D4               	addwf	___flmul@prod,f
  4520  0679  0849               	movf	??___flmul+1,w
  4521  067A  1103               	clrz
  4522  067B  1803               	skipnc
  4523  067C  3E01               	addlw	1
  4524  067D  1903               	skipnz
  4525  067E  2E80               	goto	u2321
  4526  067F  07D5               	addwf	___flmul@prod+1,f
  4527  0680                     u2321:
  4528  0680  084A               	movf	??___flmul+2,w
  4529  0681  1103               	clrz
  4530  0682  1803               	skipnc
  4531  0683  3E01               	addlw	1
  4532  0684  1903               	skipnz
  4533  0685  2E87               	goto	u2322
  4534  0686  07D6               	addwf	___flmul@prod+2,f
  4535  0687                     u2322:
  4536  0687  084B               	movf	??___flmul+3,w
  4537  0688  1103               	clrz
  4538  0689  1803               	skipnc
  4539  068A  3E01               	addlw	1
  4540  068B  1903               	skipnz
  4541  068C  2E8E               	goto	u2323
  4542  068D  07D7               	addwf	___flmul@prod+3,f
  4543  068E                     u2323:
  4544  068E  0842               	movf	___flmul@b+2,w
  4545  068F  00C8               	movwf	??___flmul
  4546  0690  0848               	movf	??___flmul,w
  4547  0691  00F0               	movwf	__Umul8_16@multiplicand
  4548  0692  0846               	movf	___flmul@a+2,w
  4549  0693  120A  158A  254B  120A  118A  	fcall	__Umul8_16
  4550  0698  0871               	movf	?__Umul8_16+1,w
  4551  0699  1283               	bcf	3,5	;RP0=0, select bank0
  4552  069A  1303               	bcf	3,6	;RP1=0, select bank0
  4553  069B  00D9               	movwf	___flmul@temp+1
  4554  069C  0870               	movf	?__Umul8_16,w
  4555  069D  00D8               	movwf	___flmul@temp
  4556  069E                     l1995:
  4557  069E  0858               	movf	___flmul@temp,w
  4558  069F  00C8               	movwf	??___flmul
  4559  06A0  0859               	movf	___flmul@temp+1,w
  4560  06A1  00C9               	movwf	??___flmul+1
  4561  06A2  01CA               	clrf	??___flmul+2
  4562  06A3  01CB               	clrf	??___flmul+3
  4563  06A4  3008               	movlw	8
  4564  06A5                     u2335:
  4565  06A5  1003               	clrc
  4566  06A6  0DC8               	rlf	??___flmul,f
  4567  06A7  0DC9               	rlf	??___flmul+1,f
  4568  06A8  0DCA               	rlf	??___flmul+2,f
  4569  06A9  0DCB               	rlf	??___flmul+3,f
  4570  06AA                     u2330:
  4571  06AA  3EFF               	addlw	-1
  4572  06AB  1D03               	skipz
  4573  06AC  2EA5               	goto	u2335
  4574  06AD  0848               	movf	??___flmul,w
  4575  06AE  07D4               	addwf	___flmul@prod,f
  4576  06AF  0849               	movf	??___flmul+1,w
  4577  06B0  1103               	clrz
  4578  06B1  1803               	skipnc
  4579  06B2  3E01               	addlw	1
  4580  06B3  1903               	skipnz
  4581  06B4  2EB6               	goto	u2341
  4582  06B5  07D5               	addwf	___flmul@prod+1,f
  4583  06B6                     u2341:
  4584  06B6  084A               	movf	??___flmul+2,w
  4585  06B7  1103               	clrz
  4586  06B8  1803               	skipnc
  4587  06B9  3E01               	addlw	1
  4588  06BA  1903               	skipnz
  4589  06BB  2EBD               	goto	u2342
  4590  06BC  07D6               	addwf	___flmul@prod+2,f
  4591  06BD                     u2342:
  4592  06BD  084B               	movf	??___flmul+3,w
  4593  06BE  1103               	clrz
  4594  06BF  1803               	skipnc
  4595  06C0  3E01               	addlw	1
  4596  06C1  1903               	skipnz
  4597  06C2  2EC4               	goto	u2343
  4598  06C3  07D7               	addwf	___flmul@prod+3,f
  4599  06C4                     u2343:
  4600  06C4                     l1997:
  4601  06C4  084E               	movf	___flmul@grs,w
  4602  06C5  00C8               	movwf	??___flmul
  4603  06C6  084F               	movf	___flmul@grs+1,w
  4604  06C7  00C9               	movwf	??___flmul+1
  4605  06C8  0850               	movf	___flmul@grs+2,w
  4606  06C9  00CA               	movwf	??___flmul+2
  4607  06CA  0851               	movf	___flmul@grs+3,w
  4608  06CB  00CB               	movwf	??___flmul+3
  4609  06CC  3018               	movlw	24
  4610  06CD                     u2355:
  4611  06CD  1003               	clrc
  4612  06CE  0CCB               	rrf	??___flmul+3,f
  4613  06CF  0CCA               	rrf	??___flmul+2,f
  4614  06D0  0CC9               	rrf	??___flmul+1,f
  4615  06D1  0CC8               	rrf	??___flmul,f
  4616  06D2                     u2350:
  4617  06D2  3EFF               	addlw	-1
  4618  06D3  1D03               	skipz
  4619  06D4  2ECD               	goto	u2355
  4620  06D5  0848               	movf	??___flmul,w
  4621  06D6  07D4               	addwf	___flmul@prod,f
  4622  06D7  0849               	movf	??___flmul+1,w
  4623  06D8  1103               	clrz
  4624  06D9  1803               	skipnc
  4625  06DA  3E01               	addlw	1
  4626  06DB  1903               	skipnz
  4627  06DC  2EDE               	goto	u2361
  4628  06DD  07D5               	addwf	___flmul@prod+1,f
  4629  06DE                     u2361:
  4630  06DE  084A               	movf	??___flmul+2,w
  4631  06DF  1103               	clrz
  4632  06E0  1803               	skipnc
  4633  06E1  3E01               	addlw	1
  4634  06E2  1903               	skipnz
  4635  06E3  2EE5               	goto	u2362
  4636  06E4  07D6               	addwf	___flmul@prod+2,f
  4637  06E5                     u2362:
  4638  06E5  084B               	movf	??___flmul+3,w
  4639  06E6  1103               	clrz
  4640  06E7  1803               	skipnc
  4641  06E8  3E01               	addlw	1
  4642  06E9  1903               	skipnz
  4643  06EA  2EEC               	goto	u2363
  4644  06EB  07D7               	addwf	___flmul@prod+3,f
  4645  06EC                     u2363:
  4646  06EC                     l1999:
  4647  06EC  3008               	movlw	8
  4648  06ED  00C8               	movwf	??___flmul
  4649  06EE                     u2375:
  4650  06EE  1003               	clrc
  4651  06EF  0DCE               	rlf	___flmul@grs,f
  4652  06F0  0DCF               	rlf	___flmul@grs+1,f
  4653  06F1  0DD0               	rlf	___flmul@grs+2,f
  4654  06F2  0DD1               	rlf	___flmul@grs+3,f
  4655  06F3  0BC8               	decfsz	??___flmul,f
  4656  06F4  2EEE               	goto	u2375
  4657  06F5                     l2001:
  4658  06F5  0853               	movf	___flmul@bexp,w
  4659  06F6  0752               	addwf	___flmul@aexp,w
  4660  06F7  00C8               	movwf	??___flmul
  4661  06F8  01C9               	clrf	??___flmul+1
  4662  06F9  0DC9               	rlf	??___flmul+1,f
  4663  06FA  0848               	movf	??___flmul,w
  4664  06FB  3E82               	addlw	130
  4665  06FC  00D8               	movwf	___flmul@temp
  4666  06FD  0849               	movf	??___flmul+1,w
  4667  06FE  1803               	skipnc
  4668  06FF  3E01               	addlw	1
  4669  0700  3EFF               	addlw	255
  4670  0701  00D9               	movwf	___flmul@temp+1
  4671  0702  2F20               	goto	l2013
  4672  0703                     l2003:
  4673  0703  3001               	movlw	1
  4674  0704  00C8               	movwf	??___flmul
  4675  0705                     u2385:
  4676  0705  1003               	clrc
  4677  0706  0DD4               	rlf	___flmul@prod,f
  4678  0707  0DD5               	rlf	___flmul@prod+1,f
  4679  0708  0DD6               	rlf	___flmul@prod+2,f
  4680  0709  0DD7               	rlf	___flmul@prod+3,f
  4681  070A  0BC8               	decfsz	??___flmul,f
  4682  070B  2F05               	goto	u2385
  4683  070C                     l2005:
  4684  070C  1FD1               	btfss	___flmul@grs+3,7
  4685  070D  2F0F               	goto	u2391
  4686  070E  2F10               	goto	u2390
  4687  070F                     u2391:
  4688  070F  2F11               	goto	l2009
  4689  0710                     u2390:
  4690  0710                     l2007:
  4691  0710  1454               	bsf	___flmul@prod,0
  4692  0711                     l2009:
  4693  0711  3001               	movlw	1
  4694  0712  00C8               	movwf	??___flmul
  4695  0713                     u2405:
  4696  0713  1003               	clrc
  4697  0714  0DCE               	rlf	___flmul@grs,f
  4698  0715  0DCF               	rlf	___flmul@grs+1,f
  4699  0716  0DD0               	rlf	___flmul@grs+2,f
  4700  0717  0DD1               	rlf	___flmul@grs+3,f
  4701  0718  0BC8               	decfsz	??___flmul,f
  4702  0719  2F13               	goto	u2405
  4703  071A                     l2011:
  4704  071A  30FF               	movlw	255
  4705  071B  07D8               	addwf	___flmul@temp,f
  4706  071C  1803               	skipnc
  4707  071D  0AD9               	incf	___flmul@temp+1,f
  4708  071E  30FF               	movlw	255
  4709  071F  07D9               	addwf	___flmul@temp+1,f
  4710  0720                     l2013:
  4711  0720  1FD6               	btfss	___flmul@prod+2,7
  4712  0721  2F23               	goto	u2411
  4713  0722  2F24               	goto	u2410
  4714  0723                     u2411:
  4715  0723  2F03               	goto	l2003
  4716  0724                     u2410:
  4717  0724                     l2015:
  4718  0724  01D2               	clrf	___flmul@aexp
  4719  0725                     l2017:
  4720  0725  1FD1               	btfss	___flmul@grs+3,7
  4721  0726  2F28               	goto	u2421
  4722  0727  2F29               	goto	u2420
  4723  0728                     u2421:
  4724  0728  2F45               	goto	l2025
  4725  0729                     u2420:
  4726  0729                     l2019:
  4727  0729  30FF               	movlw	255
  4728  072A  054E               	andwf	___flmul@grs,w
  4729  072B  00C8               	movwf	??___flmul
  4730  072C  30FF               	movlw	255
  4731  072D  054F               	andwf	___flmul@grs+1,w
  4732  072E  00C9               	movwf	??___flmul+1
  4733  072F  30FF               	movlw	255
  4734  0730  0550               	andwf	___flmul@grs+2,w
  4735  0731  00CA               	movwf	??___flmul+2
  4736  0732  307F               	movlw	127
  4737  0733  0551               	andwf	___flmul@grs+3,w
  4738  0734  00CB               	movwf	??___flmul+3
  4739  0735  084B               	movf	??___flmul+3,w
  4740  0736  044A               	iorwf	??___flmul+2,w
  4741  0737  0449               	iorwf	??___flmul+1,w
  4742  0738  0448               	iorwf	??___flmul,w
  4743  0739  1903               	skipnz
  4744  073A  2F3C               	goto	u2431
  4745  073B  2F3D               	goto	u2430
  4746  073C                     u2431:
  4747  073C  2F40               	goto	l672
  4748  073D                     u2430:
  4749  073D                     l2021:
  4750  073D  01D2               	clrf	___flmul@aexp
  4751  073E  0AD2               	incf	___flmul@aexp,f
  4752  073F  2F45               	goto	l2025
  4753  0740                     l672:
  4754  0740  1C54               	btfss	___flmul@prod,0
  4755  0741  2F43               	goto	u2441
  4756  0742  2F44               	goto	u2440
  4757  0743                     u2441:
  4758  0743  2F45               	goto	l2025
  4759  0744                     u2440:
  4760  0744  2F3D               	goto	l2021
  4761  0745                     l2025:
  4762  0745  0852               	movf	___flmul@aexp,w
  4763  0746  1903               	btfsc	3,2
  4764  0747  2F49               	goto	u2451
  4765  0748  2F4A               	goto	u2450
  4766  0749                     u2451:
  4767  0749  2F7B               	goto	l2035
  4768  074A                     u2450:
  4769  074A                     l2027:
  4770  074A  3001               	movlw	1
  4771  074B  07D4               	addwf	___flmul@prod,f
  4772  074C  3000               	movlw	0
  4773  074D  1803               	skipnc
  4774  074E  3001               	movlw	1
  4775  074F  07D5               	addwf	___flmul@prod+1,f
  4776  0750  3000               	movlw	0
  4777  0751  1803               	skipnc
  4778  0752  3001               	movlw	1
  4779  0753  07D6               	addwf	___flmul@prod+2,f
  4780  0754  3000               	movlw	0
  4781  0755  1803               	skipnc
  4782  0756  3001               	movlw	1
  4783  0757  07D7               	addwf	___flmul@prod+3,f
  4784  0758                     l2029:
  4785  0758  1C57               	btfss	___flmul@prod+3,0
  4786  0759  2F5B               	goto	u2461
  4787  075A  2F5C               	goto	u2460
  4788  075B                     u2461:
  4789  075B  2F7B               	goto	l2035
  4790  075C                     u2460:
  4791  075C                     l2031:
  4792  075C  0854               	movf	___flmul@prod,w
  4793  075D  00C8               	movwf	??___flmul
  4794  075E  0855               	movf	___flmul@prod+1,w
  4795  075F  00C9               	movwf	??___flmul+1
  4796  0760  0856               	movf	___flmul@prod+2,w
  4797  0761  00CA               	movwf	??___flmul+2
  4798  0762  0857               	movf	___flmul@prod+3,w
  4799  0763  00CB               	movwf	??___flmul+3
  4800  0764  3001               	movlw	1
  4801  0765  00CC               	movwf	??___flmul+4
  4802  0766                     u2475:
  4803  0766  0D4B               	rlf	??___flmul+3,w
  4804  0767  0CCB               	rrf	??___flmul+3,f
  4805  0768  0CCA               	rrf	??___flmul+2,f
  4806  0769  0CC9               	rrf	??___flmul+1,f
  4807  076A  0CC8               	rrf	??___flmul,f
  4808  076B                     u2470:
  4809  076B  0BCC               	decfsz	??___flmul+4,f
  4810  076C  2F66               	goto	u2475
  4811  076D  084B               	movf	??___flmul+3,w
  4812  076E  00D7               	movwf	___flmul@prod+3
  4813  076F  084A               	movf	??___flmul+2,w
  4814  0770  00D6               	movwf	___flmul@prod+2
  4815  0771  0849               	movf	??___flmul+1,w
  4816  0772  00D5               	movwf	___flmul@prod+1
  4817  0773  0848               	movf	??___flmul,w
  4818  0774  00D4               	movwf	___flmul@prod
  4819  0775                     l2033:
  4820  0775  3001               	movlw	1
  4821  0776  07D8               	addwf	___flmul@temp,f
  4822  0777  1803               	skipnc
  4823  0778  0AD9               	incf	___flmul@temp+1,f
  4824  0779  3000               	movlw	0
  4825  077A  07D9               	addwf	___flmul@temp+1,f
  4826  077B                     l2035:
  4827  077B  0859               	movf	___flmul@temp+1,w
  4828  077C  3A80               	xorlw	128
  4829  077D  00FF               	movwf	btemp+1
  4830  077E  3080               	movlw	128
  4831  077F  027F               	subwf	btemp+1,w
  4832  0780  1D03               	skipz
  4833  0781  2F84               	goto	u2485
  4834  0782  30FF               	movlw	255
  4835  0783  0258               	subwf	___flmul@temp,w
  4836  0784                     u2485:
  4837  0784  1C03               	skipc
  4838  0785  2F87               	goto	u2481
  4839  0786  2F88               	goto	u2480
  4840  0787                     u2481:
  4841  0787  2F93               	goto	l2039
  4842  0788                     u2480:
  4843  0788                     l2037:
  4844  0788  307F               	movlw	127
  4845  0789  1283               	bcf	3,5	;RP0=0, select bank0
  4846  078A  1303               	bcf	3,6	;RP1=0, select bank0
  4847  078B  00D7               	movwf	___flmul@prod+3
  4848  078C  3080               	movlw	128
  4849  078D  00D6               	movwf	___flmul@prod+2
  4850  078E  3000               	movlw	0
  4851  078F  00D5               	movwf	___flmul@prod+1
  4852  0790  3000               	movlw	0
  4853  0791  00D4               	movwf	___flmul@prod
  4854  0792  2FC8               	goto	l678
  4855  0793                     l2039:
  4856  0793  1283               	bcf	3,5	;RP0=0, select bank0
  4857  0794  1303               	bcf	3,6	;RP1=0, select bank0
  4858  0795  0859               	movf	___flmul@temp+1,w
  4859  0796  3A80               	xorlw	128
  4860  0797  00FF               	movwf	btemp+1
  4861  0798  3080               	movlw	128
  4862  0799  027F               	subwf	btemp+1,w
  4863  079A  1D03               	skipz
  4864  079B  2F9E               	goto	u2495
  4865  079C  3001               	movlw	1
  4866  079D  0258               	subwf	___flmul@temp,w
  4867  079E                     u2495:
  4868  079E  1803               	skipnc
  4869  079F  2FA1               	goto	u2491
  4870  07A0  2FA2               	goto	u2490
  4871  07A1                     u2491:
  4872  07A1  2FAE               	goto	l2045
  4873  07A2                     u2490:
  4874  07A2                     l2041:
  4875  07A2  3000               	movlw	0
  4876  07A3  1283               	bcf	3,5	;RP0=0, select bank0
  4877  07A4  1303               	bcf	3,6	;RP1=0, select bank0
  4878  07A5  00D7               	movwf	___flmul@prod+3
  4879  07A6  3000               	movlw	0
  4880  07A7  00D6               	movwf	___flmul@prod+2
  4881  07A8  3000               	movlw	0
  4882  07A9  00D5               	movwf	___flmul@prod+1
  4883  07AA  3000               	movlw	0
  4884  07AB  00D4               	movwf	___flmul@prod
  4885  07AC                     l2043:
  4886  07AC  01CD               	clrf	___flmul@sign
  4887  07AD  2FC8               	goto	l678
  4888  07AE                     l2045:
  4889  07AE  1283               	bcf	3,5	;RP0=0, select bank0
  4890  07AF  1303               	bcf	3,6	;RP1=0, select bank0
  4891  07B0  0858               	movf	___flmul@temp,w
  4892  07B1  00C8               	movwf	??___flmul
  4893  07B2  0848               	movf	??___flmul,w
  4894  07B3  00D3               	movwf	___flmul@bexp
  4895  07B4  30FF               	movlw	255
  4896  07B5  05D4               	andwf	___flmul@prod,f
  4897  07B6  30FF               	movlw	255
  4898  07B7  05D5               	andwf	___flmul@prod+1,f
  4899  07B8  307F               	movlw	127
  4900  07B9  05D6               	andwf	___flmul@prod+2,f
  4901  07BA  3000               	movlw	0
  4902  07BB  05D7               	andwf	___flmul@prod+3,f
  4903  07BC                     l2047:
  4904  07BC  1C53               	btfss	___flmul@bexp,0
  4905  07BD  2FBF               	goto	u2501
  4906  07BE  2FC0               	goto	u2500
  4907  07BF                     u2501:
  4908  07BF  2FC1               	goto	l2051
  4909  07C0                     u2500:
  4910  07C0                     l2049:
  4911  07C0  17D6               	bsf	___flmul@prod+2,7
  4912  07C1                     l2051:
  4913  07C1  0853               	movf	___flmul@bexp,w
  4914  07C2  00C8               	movwf	??___flmul
  4915  07C3  1003               	clrc
  4916  07C4  0C48               	rrf	??___flmul,w
  4917  07C5  00C9               	movwf	??___flmul+1
  4918  07C6  0849               	movf	??___flmul+1,w
  4919  07C7  00D7               	movwf	___flmul@prod+3
  4920  07C8                     l678:
  4921  07C8  084D               	movf	___flmul@sign,w
  4922  07C9  00C8               	movwf	??___flmul
  4923  07CA  0848               	movf	??___flmul,w
  4924  07CB  04D7               	iorwf	___flmul@prod+3,f
  4925  07CC                     l2053:
  4926  07CC  0857               	movf	___flmul@prod+3,w
  4927  07CD  00C3               	movwf	?___flmul+3
  4928  07CE  0856               	movf	___flmul@prod+2,w
  4929  07CF  00C2               	movwf	?___flmul+2
  4930  07D0  0855               	movf	___flmul@prod+1,w
  4931  07D1  00C1               	movwf	?___flmul+1
  4932  07D2  0854               	movf	___flmul@prod,w
  4933  07D3  00C0               	movwf	?___flmul
  4934  07D4                     l666:
  4935  07D4  0008               	return
  4936  07D5                     __end_of___flmul:
  4937                           
  4938                           	psect	text26
  4939  0D4B                     __ptext26:	
  4940 ;; *************** function __Umul8_16 *****************
  4941 ;; Defined at:
  4942 ;;		line 4 in file "C:\Program Files\Microchip\xc8\v2.36\pic\sources\c90\common\Umul8_16.c"
  4943 ;; Parameters:    Size  Location     Type
  4944 ;;  multiplier      1    wreg     unsigned char 
  4945 ;;  multiplicand    1    0[COMMON] unsigned char 
  4946 ;; Auto vars:     Size  Location     Type
  4947 ;;  multiplier      1    8[COMMON] unsigned char 
  4948 ;;  word_mpld       2    6[COMMON] unsigned int 
  4949 ;;  product         2    4[COMMON] unsigned int 
  4950 ;; Return value:  Size  Location     Type
  4951 ;;                  2    0[COMMON] unsigned int 
  4952 ;; Registers used:
  4953 ;;		wreg, status,2, status,0
  4954 ;; Tracked objects:
  4955 ;;		On entry : 0/0
  4956 ;;		On exit  : 0/0
  4957 ;;		Unchanged: 0/0
  4958 ;; Data sizes:     COMMON   BANK0   BANK1   BANK3   BANK2
  4959 ;;      Params:         2       0       0       0       0
  4960 ;;      Locals:         5       0       0       0       0
  4961 ;;      Temps:          2       0       0       0       0
  4962 ;;      Totals:         9       0       0       0       0
  4963 ;;Total ram usage:        9 bytes
  4964 ;; Hardware stack levels used: 1
  4965 ;; This function calls:
  4966 ;;		Nothing
  4967 ;; This function is called by:
  4968 ;;		___flmul
  4969 ;; This function uses a non-reentrant model
  4970 ;;
  4971                           
  4972  0D4B                     __Umul8_16:	
  4973                           ;psect for function __Umul8_16
  4974                           
  4975                           
  4976                           ;incstack = 0
  4977                           ; Regs used in __Umul8_16: [wreg+status,2+status,0]
  4978                           ;__Umul8_16@multiplier stored from wreg
  4979  0D4B  00F8               	movwf	__Umul8_16@multiplier
  4980  0D4C                     l1703:
  4981  0D4C  01F4               	clrf	__Umul8_16@product
  4982  0D4D  01F5               	clrf	__Umul8_16@product+1
  4983  0D4E                     l1705:
  4984  0D4E  0870               	movf	__Umul8_16@multiplicand,w
  4985  0D4F  00F2               	movwf	??__Umul8_16
  4986  0D50  01F3               	clrf	??__Umul8_16+1
  4987  0D51  0872               	movf	??__Umul8_16,w
  4988  0D52  00F6               	movwf	__Umul8_16@word_mpld
  4989  0D53  0873               	movf	??__Umul8_16+1,w
  4990  0D54  00F7               	movwf	__Umul8_16@word_mpld+1
  4991  0D55                     l1707:
  4992  0D55  1C78               	btfss	__Umul8_16@multiplier,0
  4993  0D56  2D58               	goto	u1711
  4994  0D57  2D59               	goto	u1710
  4995  0D58                     u1711:
  4996  0D58  2D5F               	goto	l685
  4997  0D59                     u1710:
  4998  0D59                     l1709:
  4999  0D59  0876               	movf	__Umul8_16@word_mpld,w
  5000  0D5A  07F4               	addwf	__Umul8_16@product,f
  5001  0D5B  1803               	skipnc
  5002  0D5C  0AF5               	incf	__Umul8_16@product+1,f
  5003  0D5D  0877               	movf	__Umul8_16@word_mpld+1,w
  5004  0D5E  07F5               	addwf	__Umul8_16@product+1,f
  5005  0D5F                     l685:
  5006  0D5F  3001               	movlw	1
  5007  0D60                     u1725:
  5008  0D60  1003               	clrc
  5009  0D61  0DF6               	rlf	__Umul8_16@word_mpld,f
  5010  0D62  0DF7               	rlf	__Umul8_16@word_mpld+1,f
  5011  0D63  3EFF               	addlw	-1
  5012  0D64  1D03               	skipz
  5013  0D65  2D60               	goto	u1725
  5014  0D66  1003               	clrc
  5015  0D67  0CF8               	rrf	__Umul8_16@multiplier,f
  5016  0D68                     l1711:
  5017  0D68  0878               	movf	__Umul8_16@multiplier,w
  5018  0D69  1D03               	btfss	3,2
  5019  0D6A  2D6C               	goto	u1731
  5020  0D6B  2D6D               	goto	u1730
  5021  0D6C                     u1731:
  5022  0D6C  2D55               	goto	l1707
  5023  0D6D                     u1730:
  5024  0D6D                     l1713:
  5025  0D6D  0875               	movf	__Umul8_16@product+1,w
  5026  0D6E  00F1               	movwf	?__Umul8_16+1
  5027  0D6F  0874               	movf	__Umul8_16@product,w
  5028  0D70  00F0               	movwf	?__Umul8_16
  5029  0D71                     l687:
  5030  0D71  0008               	return
  5031  0D72                     __end_of__Umul8_16:
  5032                           
  5033                           	psect	text27
  5034  0297                     __ptext27:	
  5035 ;; *************** function ___fldiv *****************
  5036 ;; Defined at:
  5037 ;;		line 8 in file "C:\Program Files\Microchip\xc8\v2.36\pic\sources\c90\common\sprcdiv.c"
  5038 ;; Parameters:    Size  Location     Type
  5039 ;;  a               4    6[BANK0 ] unsigned int 
  5040 ;;  b               4   10[BANK0 ] unsigned int 
  5041 ;; Auto vars:     Size  Location     Type
  5042 ;;  grs             4   26[BANK0 ] unsigned long 
  5043 ;;  rem             4   19[BANK0 ] unsigned long 
  5044 ;;  new_exp         2   24[BANK0 ] int 
  5045 ;;  aexp            1   31[BANK0 ] unsigned char 
  5046 ;;  bexp            1   30[BANK0 ] unsigned char 
  5047 ;;  sign            1   23[BANK0 ] unsigned char 
  5048 ;; Return value:  Size  Location     Type
  5049 ;;                  4    6[BANK0 ] unsigned char 
  5050 ;; Registers used:
  5051 ;;		wreg, status,2, status,0, btemp+1
  5052 ;; Tracked objects:
  5053 ;;		On entry : 0/0
  5054 ;;		On exit  : 0/0
  5055 ;;		Unchanged: 0/0
  5056 ;; Data sizes:     COMMON   BANK0   BANK1   BANK3   BANK2
  5057 ;;      Params:         0       8       0       0       0
  5058 ;;      Locals:         0      13       0       0       0
  5059 ;;      Temps:          0       5       0       0       0
  5060 ;;      Totals:         0      26       0       0       0
  5061 ;;Total ram usage:       26 bytes
  5062 ;; Hardware stack levels used: 1
  5063 ;; This function calls:
  5064 ;;		Nothing
  5065 ;; This function is called by:
  5066 ;;		_main
  5067 ;; This function uses a non-reentrant model
  5068 ;;
  5069                           
  5070  0297                     ___fldiv:	
  5071                           ;psect for function ___fldiv
  5072                           
  5073  0297                     l1775:	
  5074                           ;incstack = 0
  5075                           ; Regs used in ___fldiv: [wreg+status,2+status,0+btemp+1]
  5076                           
  5077  0297  1283               	bcf	3,5	;RP0=0, select bank0
  5078  0298  1303               	bcf	3,6	;RP1=0, select bank0
  5079  0299  082D               	movf	___fldiv@b+3,w
  5080  029A  3980               	andlw	128
  5081  029B  00AE               	movwf	??___fldiv
  5082  029C  082E               	movf	??___fldiv,w
  5083  029D  00B7               	movwf	___fldiv@sign
  5084  029E                     l1777:
  5085  029E  082D               	movf	___fldiv@b+3,w
  5086  029F  00AE               	movwf	??___fldiv
  5087  02A0  072E               	addwf	??___fldiv,w
  5088  02A1  00AF               	movwf	??___fldiv+1
  5089  02A2  082F               	movf	??___fldiv+1,w
  5090  02A3  00BE               	movwf	___fldiv@bexp
  5091  02A4                     l1779:
  5092  02A4  1FAC               	btfss	___fldiv@b+2,7
  5093  02A5  2AA7               	goto	u1851
  5094  02A6  2AA8               	goto	u1850
  5095  02A7                     u1851:
  5096  02A7  2AA9               	goto	l1783
  5097  02A8                     u1850:
  5098  02A8                     l1781:
  5099  02A8  143E               	bsf	___fldiv@bexp,0
  5100  02A9                     l1783:
  5101  02A9  083E               	movf	___fldiv@bexp,w
  5102  02AA  1903               	btfsc	3,2
  5103  02AB  2AAD               	goto	u1861
  5104  02AC  2AAE               	goto	u1860
  5105  02AD                     u1861:
  5106  02AD  2ABE               	goto	l1793
  5107  02AE                     u1860:
  5108  02AE                     l1785:
  5109  02AE  0A3E               	incf	___fldiv@bexp,w
  5110  02AF  1D03               	btfss	3,2
  5111  02B0  2AB2               	goto	u1871
  5112  02B1  2AB3               	goto	u1870
  5113  02B2                     u1871:
  5114  02B2  2ABB               	goto	l1789
  5115  02B3                     u1870:
  5116  02B3                     l1787:
  5117  02B3  3000               	movlw	0
  5118  02B4  00AD               	movwf	___fldiv@b+3
  5119  02B5  3000               	movlw	0
  5120  02B6  00AC               	movwf	___fldiv@b+2
  5121  02B7  3000               	movlw	0
  5122  02B8  00AB               	movwf	___fldiv@b+1
  5123  02B9  3000               	movlw	0
  5124  02BA  00AA               	movwf	___fldiv@b
  5125  02BB                     l1789:
  5126  02BB  17AC               	bsf	___fldiv@b+2,7
  5127  02BC                     l1791:
  5128  02BC  01AD               	clrf	___fldiv@b+3
  5129  02BD  2AC6               	goto	l1795
  5130  02BE                     l1793:
  5131  02BE  3000               	movlw	0
  5132  02BF  00AD               	movwf	___fldiv@b+3
  5133  02C0  3000               	movlw	0
  5134  02C1  00AC               	movwf	___fldiv@b+2
  5135  02C2  3000               	movlw	0
  5136  02C3  00AB               	movwf	___fldiv@b+1
  5137  02C4  3000               	movlw	0
  5138  02C5  00AA               	movwf	___fldiv@b
  5139  02C6                     l1795:
  5140  02C6  0829               	movf	___fldiv@a+3,w
  5141  02C7  3980               	andlw	128
  5142  02C8  00AE               	movwf	??___fldiv
  5143  02C9  082E               	movf	??___fldiv,w
  5144  02CA  06B7               	xorwf	___fldiv@sign,f
  5145  02CB                     l1797:
  5146  02CB  0829               	movf	___fldiv@a+3,w
  5147  02CC  00AE               	movwf	??___fldiv
  5148  02CD  072E               	addwf	??___fldiv,w
  5149  02CE  00AF               	movwf	??___fldiv+1
  5150  02CF  082F               	movf	??___fldiv+1,w
  5151  02D0  00BF               	movwf	___fldiv@aexp
  5152  02D1                     l1799:
  5153  02D1  1FA8               	btfss	___fldiv@a+2,7
  5154  02D2  2AD4               	goto	u1881
  5155  02D3  2AD5               	goto	u1880
  5156  02D4                     u1881:
  5157  02D4  2AD6               	goto	l1803
  5158  02D5                     u1880:
  5159  02D5                     l1801:
  5160  02D5  143F               	bsf	___fldiv@aexp,0
  5161  02D6                     l1803:
  5162  02D6  083F               	movf	___fldiv@aexp,w
  5163  02D7  1903               	btfsc	3,2
  5164  02D8  2ADA               	goto	u1891
  5165  02D9  2ADB               	goto	u1890
  5166  02DA                     u1891:
  5167  02DA  2AEB               	goto	l1813
  5168  02DB                     u1890:
  5169  02DB                     l1805:
  5170  02DB  0A3F               	incf	___fldiv@aexp,w
  5171  02DC  1D03               	btfss	3,2
  5172  02DD  2ADF               	goto	u1901
  5173  02DE  2AE0               	goto	u1900
  5174  02DF                     u1901:
  5175  02DF  2AE8               	goto	l1809
  5176  02E0                     u1900:
  5177  02E0                     l1807:
  5178  02E0  3000               	movlw	0
  5179  02E1  00A9               	movwf	___fldiv@a+3
  5180  02E2  3000               	movlw	0
  5181  02E3  00A8               	movwf	___fldiv@a+2
  5182  02E4  3000               	movlw	0
  5183  02E5  00A7               	movwf	___fldiv@a+1
  5184  02E6  3000               	movlw	0
  5185  02E7  00A6               	movwf	___fldiv@a
  5186  02E8                     l1809:
  5187  02E8  17A8               	bsf	___fldiv@a+2,7
  5188  02E9                     l1811:
  5189  02E9  01A9               	clrf	___fldiv@a+3
  5190  02EA  2AF3               	goto	l626
  5191  02EB                     l1813:
  5192  02EB  3000               	movlw	0
  5193  02EC  00A9               	movwf	___fldiv@a+3
  5194  02ED  3000               	movlw	0
  5195  02EE  00A8               	movwf	___fldiv@a+2
  5196  02EF  3000               	movlw	0
  5197  02F0  00A7               	movwf	___fldiv@a+1
  5198  02F1  3000               	movlw	0
  5199  02F2  00A6               	movwf	___fldiv@a
  5200  02F3                     l626:
  5201  02F3  0829               	movf	___fldiv@a+3,w
  5202  02F4  0428               	iorwf	___fldiv@a+2,w
  5203  02F5  0427               	iorwf	___fldiv@a+1,w
  5204  02F6  0426               	iorwf	___fldiv@a,w
  5205  02F7  1D03               	skipz
  5206  02F8  2AFA               	goto	u1911
  5207  02F9  2AFB               	goto	u1910
  5208  02FA                     u1911:
  5209  02FA  2B14               	goto	l1823
  5210  02FB                     u1910:
  5211  02FB                     l1815:
  5212  02FB  3000               	movlw	0
  5213  02FC  00AD               	movwf	___fldiv@b+3
  5214  02FD  3000               	movlw	0
  5215  02FE  00AC               	movwf	___fldiv@b+2
  5216  02FF  3000               	movlw	0
  5217  0300  00AB               	movwf	___fldiv@b+1
  5218  0301  3000               	movlw	0
  5219  0302  00AA               	movwf	___fldiv@b
  5220  0303  3080               	movlw	128
  5221  0304  04AC               	iorwf	___fldiv@b+2,f
  5222  0305  307F               	movlw	127
  5223  0306  04AD               	iorwf	___fldiv@b+3,f
  5224  0307                     l1817:
  5225  0307  0837               	movf	___fldiv@sign,w
  5226  0308  00AE               	movwf	??___fldiv
  5227  0309  082E               	movf	??___fldiv,w
  5228  030A  04AD               	iorwf	___fldiv@b+3,f
  5229  030B                     l1819:
  5230  030B  082D               	movf	___fldiv@b+3,w
  5231  030C  00A9               	movwf	?___fldiv+3
  5232  030D  082C               	movf	___fldiv@b+2,w
  5233  030E  00A8               	movwf	?___fldiv+2
  5234  030F  082B               	movf	___fldiv@b+1,w
  5235  0310  00A7               	movwf	?___fldiv+1
  5236  0311  082A               	movf	___fldiv@b,w
  5237  0312  00A6               	movwf	?___fldiv
  5238  0313  2C73               	goto	l628
  5239  0314                     l1823:
  5240  0314  083E               	movf	___fldiv@bexp,w
  5241  0315  1D03               	btfss	3,2
  5242  0316  2B18               	goto	u1921
  5243  0317  2B19               	goto	u1920
  5244  0318                     u1921:
  5245  0318  2B22               	goto	l1829
  5246  0319                     u1920:
  5247  0319                     l1825:
  5248  0319  3000               	movlw	0
  5249  031A  00A9               	movwf	?___fldiv+3
  5250  031B  3000               	movlw	0
  5251  031C  00A8               	movwf	?___fldiv+2
  5252  031D  3000               	movlw	0
  5253  031E  00A7               	movwf	?___fldiv+1
  5254  031F  3000               	movlw	0
  5255  0320  00A6               	movwf	?___fldiv
  5256  0321  2C73               	goto	l628
  5257  0322                     l1829:
  5258  0322  083E               	movf	___fldiv@bexp,w
  5259  0323  00AE               	movwf	??___fldiv
  5260  0324  01AF               	clrf	??___fldiv+1
  5261  0325  082F               	movf	??___fldiv+1,w
  5262  0326  00B1               	movwf	??___fldiv+3
  5263  0327  083F               	movf	___fldiv@aexp,w
  5264  0328  022E               	subwf	??___fldiv,w
  5265  0329  00B0               	movwf	??___fldiv+2
  5266  032A  1C03               	skipc
  5267  032B  03B1               	decf	??___fldiv+3,f
  5268  032C  0830               	movf	??___fldiv+2,w
  5269  032D  3E7F               	addlw	127
  5270  032E  00B8               	movwf	___fldiv@new_exp
  5271  032F  0831               	movf	??___fldiv+3,w
  5272  0330  1803               	skipnc
  5273  0331  3E01               	addlw	1
  5274  0332  3E00               	addlw	0
  5275  0333  00B9               	movwf	___fldiv@new_exp+1
  5276  0334                     l1831:
  5277  0334  082D               	movf	___fldiv@b+3,w
  5278  0335  00B6               	movwf	___fldiv@rem+3
  5279  0336  082C               	movf	___fldiv@b+2,w
  5280  0337  00B5               	movwf	___fldiv@rem+2
  5281  0338  082B               	movf	___fldiv@b+1,w
  5282  0339  00B4               	movwf	___fldiv@rem+1
  5283  033A  082A               	movf	___fldiv@b,w
  5284  033B  00B3               	movwf	___fldiv@rem
  5285  033C                     l1833:
  5286  033C  3000               	movlw	0
  5287  033D  00AD               	movwf	___fldiv@b+3
  5288  033E  3000               	movlw	0
  5289  033F  00AC               	movwf	___fldiv@b+2
  5290  0340  3000               	movlw	0
  5291  0341  00AB               	movwf	___fldiv@b+1
  5292  0342  3000               	movlw	0
  5293  0343  00AA               	movwf	___fldiv@b
  5294  0344                     l1835:
  5295  0344  3000               	movlw	0
  5296  0345  00BD               	movwf	___fldiv@grs+3
  5297  0346  3000               	movlw	0
  5298  0347  00BC               	movwf	___fldiv@grs+2
  5299  0348  3000               	movlw	0
  5300  0349  00BB               	movwf	___fldiv@grs+1
  5301  034A  3000               	movlw	0
  5302  034B  00BA               	movwf	___fldiv@grs
  5303  034C                     l1837:
  5304  034C  01BF               	clrf	___fldiv@aexp
  5305  034D  2B98               	goto	l1857
  5306  034E                     l1839:
  5307  034E  083F               	movf	___fldiv@aexp,w
  5308  034F  1903               	btfsc	3,2
  5309  0350  2B52               	goto	u1931
  5310  0351  2B53               	goto	u1930
  5311  0352                     u1931:
  5312  0352  2B73               	goto	l1849
  5313  0353                     u1930:
  5314  0353                     l1841:
  5315  0353  3001               	movlw	1
  5316  0354  00AE               	movwf	??___fldiv
  5317  0355                     u1945:
  5318  0355  1003               	clrc
  5319  0356  0DB3               	rlf	___fldiv@rem,f
  5320  0357  0DB4               	rlf	___fldiv@rem+1,f
  5321  0358  0DB5               	rlf	___fldiv@rem+2,f
  5322  0359  0DB6               	rlf	___fldiv@rem+3,f
  5323  035A  0BAE               	decfsz	??___fldiv,f
  5324  035B  2B55               	goto	u1945
  5325  035C  3001               	movlw	1
  5326  035D  00AE               	movwf	??___fldiv
  5327  035E                     u1955:
  5328  035E  1003               	clrc
  5329  035F  0DAA               	rlf	___fldiv@b,f
  5330  0360  0DAB               	rlf	___fldiv@b+1,f
  5331  0361  0DAC               	rlf	___fldiv@b+2,f
  5332  0362  0DAD               	rlf	___fldiv@b+3,f
  5333  0363  0BAE               	decfsz	??___fldiv,f
  5334  0364  2B5E               	goto	u1955
  5335  0365                     l1843:
  5336  0365  1FBD               	btfss	___fldiv@grs+3,7
  5337  0366  2B68               	goto	u1961
  5338  0367  2B69               	goto	u1960
  5339  0368                     u1961:
  5340  0368  2B6A               	goto	l1847
  5341  0369                     u1960:
  5342  0369                     l1845:
  5343  0369  142A               	bsf	___fldiv@b,0
  5344  036A                     l1847:
  5345  036A  3001               	movlw	1
  5346  036B  00AE               	movwf	??___fldiv
  5347  036C                     u1975:
  5348  036C  1003               	clrc
  5349  036D  0DBA               	rlf	___fldiv@grs,f
  5350  036E  0DBB               	rlf	___fldiv@grs+1,f
  5351  036F  0DBC               	rlf	___fldiv@grs+2,f
  5352  0370  0DBD               	rlf	___fldiv@grs+3,f
  5353  0371  0BAE               	decfsz	??___fldiv,f
  5354  0372  2B6C               	goto	u1975
  5355  0373                     l1849:
  5356  0373  0829               	movf	___fldiv@a+3,w
  5357  0374  0236               	subwf	___fldiv@rem+3,w
  5358  0375  1D03               	skipz
  5359  0376  2B81               	goto	u1985
  5360  0377  0828               	movf	___fldiv@a+2,w
  5361  0378  0235               	subwf	___fldiv@rem+2,w
  5362  0379  1D03               	skipz
  5363  037A  2B81               	goto	u1985
  5364  037B  0827               	movf	___fldiv@a+1,w
  5365  037C  0234               	subwf	___fldiv@rem+1,w
  5366  037D  1D03               	skipz
  5367  037E  2B81               	goto	u1985
  5368  037F  0826               	movf	___fldiv@a,w
  5369  0380  0233               	subwf	___fldiv@rem,w
  5370  0381                     u1985:
  5371  0381  1C03               	skipc
  5372  0382  2B84               	goto	u1981
  5373  0383  2B85               	goto	u1980
  5374  0384                     u1981:
  5375  0384  2B94               	goto	l1855
  5376  0385                     u1980:
  5377  0385                     l1851:
  5378  0385  173D               	bsf	___fldiv@grs+3,6
  5379  0386                     l1853:
  5380  0386  0826               	movf	___fldiv@a,w
  5381  0387  02B3               	subwf	___fldiv@rem,f
  5382  0388  0827               	movf	___fldiv@a+1,w
  5383  0389  1C03               	skipc
  5384  038A  0F27               	incfsz	___fldiv@a+1,w
  5385  038B  02B4               	subwf	___fldiv@rem+1,f
  5386  038C  0828               	movf	___fldiv@a+2,w
  5387  038D  1C03               	skipc
  5388  038E  0F28               	incfsz	___fldiv@a+2,w
  5389  038F  02B5               	subwf	___fldiv@rem+2,f
  5390  0390  0829               	movf	___fldiv@a+3,w
  5391  0391  1C03               	skipc
  5392  0392  0F29               	incfsz	___fldiv@a+3,w
  5393  0393  02B6               	subwf	___fldiv@rem+3,f
  5394  0394                     l1855:
  5395  0394  3001               	movlw	1
  5396  0395  00AE               	movwf	??___fldiv
  5397  0396  082E               	movf	??___fldiv,w
  5398  0397  07BF               	addwf	___fldiv@aexp,f
  5399  0398                     l1857:
  5400  0398  301A               	movlw	26
  5401  0399  023F               	subwf	___fldiv@aexp,w
  5402  039A  1C03               	skipc
  5403  039B  2B9D               	goto	u1991
  5404  039C  2B9E               	goto	u1990
  5405  039D                     u1991:
  5406  039D  2B4E               	goto	l1839
  5407  039E                     u1990:
  5408  039E                     l1859:
  5409  039E  0836               	movf	___fldiv@rem+3,w
  5410  039F  0435               	iorwf	___fldiv@rem+2,w
  5411  03A0  0434               	iorwf	___fldiv@rem+1,w
  5412  03A1  0433               	iorwf	___fldiv@rem,w
  5413  03A2  1903               	skipnz
  5414  03A3  2BA5               	goto	u2001
  5415  03A4  2BA6               	goto	u2000
  5416  03A5                     u2001:
  5417  03A5  2BC5               	goto	l1873
  5418  03A6                     u2000:
  5419  03A6                     l1861:
  5420  03A6  143A               	bsf	___fldiv@grs,0
  5421  03A7  2BC5               	goto	l1873
  5422  03A8                     l1863:
  5423  03A8  3001               	movlw	1
  5424  03A9  00AE               	movwf	??___fldiv
  5425  03AA                     u2015:
  5426  03AA  1003               	clrc
  5427  03AB  0DAA               	rlf	___fldiv@b,f
  5428  03AC  0DAB               	rlf	___fldiv@b+1,f
  5429  03AD  0DAC               	rlf	___fldiv@b+2,f
  5430  03AE  0DAD               	rlf	___fldiv@b+3,f
  5431  03AF  0BAE               	decfsz	??___fldiv,f
  5432  03B0  2BAA               	goto	u2015
  5433  03B1                     l1865:
  5434  03B1  1FBD               	btfss	___fldiv@grs+3,7
  5435  03B2  2BB4               	goto	u2021
  5436  03B3  2BB5               	goto	u2020
  5437  03B4                     u2021:
  5438  03B4  2BB6               	goto	l1869
  5439  03B5                     u2020:
  5440  03B5                     l1867:
  5441  03B5  142A               	bsf	___fldiv@b,0
  5442  03B6                     l1869:
  5443  03B6  3001               	movlw	1
  5444  03B7  00AE               	movwf	??___fldiv
  5445  03B8                     u2035:
  5446  03B8  1003               	clrc
  5447  03B9  0DBA               	rlf	___fldiv@grs,f
  5448  03BA  0DBB               	rlf	___fldiv@grs+1,f
  5449  03BB  0DBC               	rlf	___fldiv@grs+2,f
  5450  03BC  0DBD               	rlf	___fldiv@grs+3,f
  5451  03BD  0BAE               	decfsz	??___fldiv,f
  5452  03BE  2BB8               	goto	u2035
  5453  03BF                     l1871:
  5454  03BF  30FF               	movlw	255
  5455  03C0  07B8               	addwf	___fldiv@new_exp,f
  5456  03C1  1803               	skipnc
  5457  03C2  0AB9               	incf	___fldiv@new_exp+1,f
  5458  03C3  30FF               	movlw	255
  5459  03C4  07B9               	addwf	___fldiv@new_exp+1,f
  5460  03C5                     l1873:
  5461  03C5  1FAC               	btfss	___fldiv@b+2,7
  5462  03C6  2BC8               	goto	u2041
  5463  03C7  2BC9               	goto	u2040
  5464  03C8                     u2041:
  5465  03C8  2BA8               	goto	l1863
  5466  03C9                     u2040:
  5467  03C9                     l1875:
  5468  03C9  01BF               	clrf	___fldiv@aexp
  5469  03CA                     l1877:
  5470  03CA  1FBD               	btfss	___fldiv@grs+3,7
  5471  03CB  2BCD               	goto	u2051
  5472  03CC  2BCE               	goto	u2050
  5473  03CD                     u2051:
  5474  03CD  2BEA               	goto	l1885
  5475  03CE                     u2050:
  5476  03CE                     l1879:
  5477  03CE  30FF               	movlw	255
  5478  03CF  053A               	andwf	___fldiv@grs,w
  5479  03D0  00AE               	movwf	??___fldiv
  5480  03D1  30FF               	movlw	255
  5481  03D2  053B               	andwf	___fldiv@grs+1,w
  5482  03D3  00AF               	movwf	??___fldiv+1
  5483  03D4  30FF               	movlw	255
  5484  03D5  053C               	andwf	___fldiv@grs+2,w
  5485  03D6  00B0               	movwf	??___fldiv+2
  5486  03D7  307F               	movlw	127
  5487  03D8  053D               	andwf	___fldiv@grs+3,w
  5488  03D9  00B1               	movwf	??___fldiv+3
  5489  03DA  0831               	movf	??___fldiv+3,w
  5490  03DB  0430               	iorwf	??___fldiv+2,w
  5491  03DC  042F               	iorwf	??___fldiv+1,w
  5492  03DD  042E               	iorwf	??___fldiv,w
  5493  03DE  1903               	skipnz
  5494  03DF  2BE1               	goto	u2061
  5495  03E0  2BE2               	goto	u2060
  5496  03E1                     u2061:
  5497  03E1  2BE5               	goto	l642
  5498  03E2                     u2060:
  5499  03E2                     l1881:
  5500  03E2  01BF               	clrf	___fldiv@aexp
  5501  03E3  0ABF               	incf	___fldiv@aexp,f
  5502  03E4  2BEA               	goto	l1885
  5503  03E5                     l642:
  5504  03E5  1C2A               	btfss	___fldiv@b,0
  5505  03E6  2BE8               	goto	u2071
  5506  03E7  2BE9               	goto	u2070
  5507  03E8                     u2071:
  5508  03E8  2BEA               	goto	l1885
  5509  03E9                     u2070:
  5510  03E9  2BE2               	goto	l1881
  5511  03EA                     l1885:
  5512  03EA  083F               	movf	___fldiv@aexp,w
  5513  03EB  1903               	btfsc	3,2
  5514  03EC  2BEE               	goto	u2081
  5515  03ED  2BEF               	goto	u2080
  5516  03EE                     u2081:
  5517  03EE  2C20               	goto	l1895
  5518  03EF                     u2080:
  5519  03EF                     l1887:
  5520  03EF  3001               	movlw	1
  5521  03F0  07AA               	addwf	___fldiv@b,f
  5522  03F1  3000               	movlw	0
  5523  03F2  1803               	skipnc
  5524  03F3  3001               	movlw	1
  5525  03F4  07AB               	addwf	___fldiv@b+1,f
  5526  03F5  3000               	movlw	0
  5527  03F6  1803               	skipnc
  5528  03F7  3001               	movlw	1
  5529  03F8  07AC               	addwf	___fldiv@b+2,f
  5530  03F9  3000               	movlw	0
  5531  03FA  1803               	skipnc
  5532  03FB  3001               	movlw	1
  5533  03FC  07AD               	addwf	___fldiv@b+3,f
  5534  03FD                     l1889:
  5535  03FD  1C2D               	btfss	___fldiv@b+3,0
  5536  03FE  2C00               	goto	u2091
  5537  03FF  2C01               	goto	u2090
  5538  0400                     u2091:
  5539  0400  2C20               	goto	l1895
  5540  0401                     u2090:
  5541  0401                     l1891:
  5542  0401  082A               	movf	___fldiv@b,w
  5543  0402  00AE               	movwf	??___fldiv
  5544  0403  082B               	movf	___fldiv@b+1,w
  5545  0404  00AF               	movwf	??___fldiv+1
  5546  0405  082C               	movf	___fldiv@b+2,w
  5547  0406  00B0               	movwf	??___fldiv+2
  5548  0407  082D               	movf	___fldiv@b+3,w
  5549  0408  00B1               	movwf	??___fldiv+3
  5550  0409  3001               	movlw	1
  5551  040A  00B2               	movwf	??___fldiv+4
  5552  040B                     u2105:
  5553  040B  0D31               	rlf	??___fldiv+3,w
  5554  040C  0CB1               	rrf	??___fldiv+3,f
  5555  040D  0CB0               	rrf	??___fldiv+2,f
  5556  040E  0CAF               	rrf	??___fldiv+1,f
  5557  040F  0CAE               	rrf	??___fldiv,f
  5558  0410                     u2100:
  5559  0410  0BB2               	decfsz	??___fldiv+4,f
  5560  0411  2C0B               	goto	u2105
  5561  0412  0831               	movf	??___fldiv+3,w
  5562  0413  00AD               	movwf	___fldiv@b+3
  5563  0414  0830               	movf	??___fldiv+2,w
  5564  0415  00AC               	movwf	___fldiv@b+2
  5565  0416  082F               	movf	??___fldiv+1,w
  5566  0417  00AB               	movwf	___fldiv@b+1
  5567  0418  082E               	movf	??___fldiv,w
  5568  0419  00AA               	movwf	___fldiv@b
  5569  041A                     l1893:
  5570  041A  3001               	movlw	1
  5571  041B  07B8               	addwf	___fldiv@new_exp,f
  5572  041C  1803               	skipnc
  5573  041D  0AB9               	incf	___fldiv@new_exp+1,f
  5574  041E  3000               	movlw	0
  5575  041F  07B9               	addwf	___fldiv@new_exp+1,f
  5576  0420                     l1895:
  5577  0420  0839               	movf	___fldiv@new_exp+1,w
  5578  0421  3A80               	xorlw	128
  5579  0422  00FF               	movwf	btemp+1
  5580  0423  3080               	movlw	128
  5581  0424  027F               	subwf	btemp+1,w
  5582  0425  1D03               	skipz
  5583  0426  2C29               	goto	u2115
  5584  0427  30FF               	movlw	255
  5585  0428  0238               	subwf	___fldiv@new_exp,w
  5586  0429                     u2115:
  5587  0429  1C03               	skipc
  5588  042A  2C2C               	goto	u2111
  5589  042B  2C2D               	goto	u2110
  5590  042C                     u2111:
  5591  042C  2C3B               	goto	l1899
  5592  042D                     u2110:
  5593  042D                     l1897:
  5594  042D  30FF               	movlw	255
  5595  042E  1283               	bcf	3,5	;RP0=0, select bank0
  5596  042F  1303               	bcf	3,6	;RP1=0, select bank0
  5597  0430  00B8               	movwf	___fldiv@new_exp
  5598  0431  3000               	movlw	0
  5599  0432  00B9               	movwf	___fldiv@new_exp+1
  5600  0433  3000               	movlw	0
  5601  0434  00AD               	movwf	___fldiv@b+3
  5602  0435  3000               	movlw	0
  5603  0436  00AC               	movwf	___fldiv@b+2
  5604  0437  3000               	movlw	0
  5605  0438  00AB               	movwf	___fldiv@b+1
  5606  0439  3000               	movlw	0
  5607  043A  00AA               	movwf	___fldiv@b
  5608  043B                     l1899:
  5609  043B  1283               	bcf	3,5	;RP0=0, select bank0
  5610  043C  1303               	bcf	3,6	;RP1=0, select bank0
  5611  043D  0839               	movf	___fldiv@new_exp+1,w
  5612  043E  3A80               	xorlw	128
  5613  043F  00FF               	movwf	btemp+1
  5614  0440  3080               	movlw	128
  5615  0441  027F               	subwf	btemp+1,w
  5616  0442  1D03               	skipz
  5617  0443  2C46               	goto	u2125
  5618  0444  3001               	movlw	1
  5619  0445  0238               	subwf	___fldiv@new_exp,w
  5620  0446                     u2125:
  5621  0446  1803               	skipnc
  5622  0447  2C49               	goto	u2121
  5623  0448  2C4A               	goto	u2120
  5624  0449                     u2121:
  5625  0449  2C57               	goto	l648
  5626  044A                     u2120:
  5627  044A                     l1901:
  5628  044A  1283               	bcf	3,5	;RP0=0, select bank0
  5629  044B  1303               	bcf	3,6	;RP1=0, select bank0
  5630  044C  01B8               	clrf	___fldiv@new_exp
  5631  044D  01B9               	clrf	___fldiv@new_exp+1
  5632  044E                     l1903:
  5633  044E  3000               	movlw	0
  5634  044F  00AD               	movwf	___fldiv@b+3
  5635  0450  3000               	movlw	0
  5636  0451  00AC               	movwf	___fldiv@b+2
  5637  0452  3000               	movlw	0
  5638  0453  00AB               	movwf	___fldiv@b+1
  5639  0454  3000               	movlw	0
  5640  0455  00AA               	movwf	___fldiv@b
  5641  0456                     l1905:
  5642  0456  01B7               	clrf	___fldiv@sign
  5643  0457                     l648:
  5644  0457  1283               	bcf	3,5	;RP0=0, select bank0
  5645  0458  1303               	bcf	3,6	;RP1=0, select bank0
  5646  0459  0838               	movf	___fldiv@new_exp,w
  5647  045A  00AE               	movwf	??___fldiv
  5648  045B  082E               	movf	??___fldiv,w
  5649  045C  00BE               	movwf	___fldiv@bexp
  5650  045D                     l1907:
  5651  045D  1C3E               	btfss	___fldiv@bexp,0
  5652  045E  2C60               	goto	u2131
  5653  045F  2C61               	goto	u2130
  5654  0460                     u2131:
  5655  0460  2C63               	goto	l1911
  5656  0461                     u2130:
  5657  0461                     l1909:
  5658  0461  17AC               	bsf	___fldiv@b+2,7
  5659  0462  2C67               	goto	l650
  5660  0463                     l1911:
  5661  0463  307F               	movlw	127
  5662  0464  00AE               	movwf	??___fldiv
  5663  0465  082E               	movf	??___fldiv,w
  5664  0466  05AC               	andwf	___fldiv@b+2,f
  5665  0467                     l650:
  5666  0467  083E               	movf	___fldiv@bexp,w
  5667  0468  00AE               	movwf	??___fldiv
  5668  0469  1003               	clrc
  5669  046A  0C2E               	rrf	??___fldiv,w
  5670  046B  00AF               	movwf	??___fldiv+1
  5671  046C  082F               	movf	??___fldiv+1,w
  5672  046D  00AD               	movwf	___fldiv@b+3
  5673  046E  0837               	movf	___fldiv@sign,w
  5674  046F  00AE               	movwf	??___fldiv
  5675  0470  082E               	movf	??___fldiv,w
  5676  0471  04AD               	iorwf	___fldiv@b+3,f
  5677  0472  2B0B               	goto	l1819
  5678  0473                     l628:
  5679  0473  0008               	return
  5680  0474                     __end_of___fldiv:
  5681  007E                     btemp	set	126	;btemp
  5682  007E                     wtemp0	set	126
  5683                           
  5684                           	psect	idloc
  5685                           
  5686                           ;Config register IDLOC0 @ 0x2000
  5687                           ;	unspecified, using default values
  5688  2000                     	org	8192
  5689  2000  3FFF               	dw	16383
  5690                           
  5691                           ;Config register IDLOC1 @ 0x2001
  5692                           ;	unspecified, using default values
  5693  2001                     	org	8193
  5694  2001  3FFF               	dw	16383
  5695                           
  5696                           ;Config register IDLOC2 @ 0x2002
  5697                           ;	unspecified, using default values
  5698  2002                     	org	8194
  5699  2002  3FFF               	dw	16383
  5700                           
  5701                           ;Config register IDLOC3 @ 0x2003
  5702                           ;	unspecified, using default values
  5703  2003                     	org	8195
  5704  2003  3FFF               	dw	16383
  5705                           
  5706                           	psect	config
  5707                           
  5708                           ;Config register CONFIG @ 0x2007
  5709                           ;	Oscillator Selection bits
  5710                           ;	FOSC = 0x3, unprogrammed default
  5711                           ;	Watchdog Timer Enable bit
  5712                           ;	WDTE = OFF, WDT disabled
  5713                           ;	Power-up Timer Enable bit
  5714                           ;	PWRTE = 0x1, unprogrammed default
  5715                           ;	Brown-out Reset Enable bit
  5716                           ;	BOREN = 0x1, unprogrammed default
  5717                           ;	Low-Voltage (Single-Supply) In-Circuit Serial Programming Enable bit
  5718                           ;	LVP = 0x1, unprogrammed default
  5719                           ;	Data EEPROM Memory Code Protection bit
  5720                           ;	CPD = 0x1, unprogrammed default
  5721                           ;	Flash Program Memory Write Enable bits
  5722                           ;	WRT = 0x3, unprogrammed default
  5723                           ;	In-Circuit Debugger Mode bit
  5724                           ;	DEBUG = 0x1, unprogrammed default
  5725                           ;	Flash Program Memory Code Protection bit
  5726                           ;	CP = 0x1, unprogrammed default
  5727  2007                     	org	8199
  5728  2007  3FFB               	dw	16379

Data Sizes:
    Strings     17
    Constant    0
    Data        4
    BSS         9
    Persistent  0
    Stack       0

Auto Spaces:
    Space          Size  Autos    Used
    COMMON           14     14      14
    BANK0            80     77      78
    BANK1            80      0      12
    BANK3            96      0       0
    BANK2            96      0       0

Pointer List with Targets:

    display_dashboard@event	PTR unsigned char  size(1) Largest target is 3
		 -> main@event(BANK0[3]), 

    clcd_print@str	PTR const unsigned char  size(1) Largest target is 17
		 -> STR_1(CODE[17]), 


Critical Paths under _main in COMMON

    _main->___fltol
    _main->_display_dashboard
    _init_i2c->___lldiv
    _init_clcd->_init_display_controller
    _init_display_controller->_clcd_write
    _display_dashboard->_display_time
    _display_time->_clcd_putch
    _get_time->_read_ds1307
    _read_ds1307->_i2c_read
    _clcd_putch->___awdiv
    _clcd_print->_clcd_write
    ___xxtofl->_read_adc
    ___fltol->___xxtofl
    ___flmul->___xxtofl
    ___fldiv->___xxtofl

Critical Paths under _main in BANK0

    _main->___fltol
    _init_config->_init_i2c
    ___fltol->___flmul
    ___flmul->___fldiv
    ___fldiv->___xxtofl

Critical Paths under _main in BANK1

    None.

Critical Paths under _main in BANK3

    None.

Critical Paths under _main in BANK2

    None.

Call Graph Tables:

 ---------------------------------------------------------------------------------
 (Depth) Function   	        Calls       Base Space   Used Autos Params    Refs
 ---------------------------------------------------------------------------------
 (0) _main                                                10    10      0   11588
                                             67 BANK0     10    10      0
                            ___fldiv
                            ___flmul
                            ___fltol
                           ___xxtofl
                  _display_dashboard
                        _init_config
                           _read_adc
 ---------------------------------------------------------------------------------
 (1) _read_adc                                             4     2      2      23
                                              0 COMMON     4     2      2
 ---------------------------------------------------------------------------------
 (1) _init_config                                          0     0      0    1216
                           _init_adc
                          _init_clcd
                           _init_i2c
 ---------------------------------------------------------------------------------
 (2) _init_i2c                                             8     4      4     412
                                              0 BANK0      8     4      4
                            ___lldiv
 ---------------------------------------------------------------------------------
 (3) ___lldiv                                             14     6      8     314
                                              0 COMMON    14     6      8
 ---------------------------------------------------------------------------------
 (2) _init_clcd                                            0     0      0     804
            _init_display_controller
 ---------------------------------------------------------------------------------
 (3) _init_display_controller                              2     2      0     804
                                              4 COMMON     2     2      0
                         _clcd_write
 ---------------------------------------------------------------------------------
 (2) _init_adc                                             0     0      0       0
 ---------------------------------------------------------------------------------
 (1) _display_dashboard                                    5     4      1    5883
                                             12 COMMON     2     1      1
                                              0 BANK0      3     3      0
                            ___awdiv
                            ___awmod
                         _clcd_print
                         _clcd_putch
                       _display_time
 ---------------------------------------------------------------------------------
 (2) _display_time                                         1     1      0    1948
                                             11 COMMON     1     1      0
                         _clcd_putch
                           _get_time
 ---------------------------------------------------------------------------------
 (3) _get_time                                             2     2      0     112
                                              6 COMMON     2     2      0
                        _read_ds1307
 ---------------------------------------------------------------------------------
 (4) _read_ds1307                                          3     3      0     112
                                              3 COMMON     3     3      0
                           _i2c_read
                      _i2c_rep_start
                          _i2c_start
                           _i2c_stop
                          _i2c_write
 ---------------------------------------------------------------------------------
 (5) _i2c_write                                            1     1      0      22
                                              0 COMMON     1     1      0
                  _i2c_wait_for_idle
 ---------------------------------------------------------------------------------
 (5) _i2c_rep_start                                        0     0      0       0
                          _i2c_start
                           _i2c_stop
 ---------------------------------------------------------------------------------
 (5) _i2c_stop                                             0     0      0       0
                  _i2c_wait_for_idle
 ---------------------------------------------------------------------------------
 (5) _i2c_start                                            0     0      0       0
                  _i2c_wait_for_idle
 ---------------------------------------------------------------------------------
 (5) _i2c_read                                             3     3      0      45
                                              0 COMMON     3     3      0
                  _i2c_wait_for_idle
 ---------------------------------------------------------------------------------
 (6) _i2c_wait_for_idle                                    0     0      0       0
 ---------------------------------------------------------------------------------
 (3) _clcd_putch                                           2     1      1    1836
                                              9 COMMON     2     1      1
                            ___awdiv (ARG)
                            ___awmod (ARG)
                         _clcd_write
 ---------------------------------------------------------------------------------
 (2) _clcd_print                                           3     2      1     980
                                              4 COMMON     3     2      1
                         _clcd_write
 ---------------------------------------------------------------------------------
 (4) _clcd_write                                           4     3      1     804
                                              0 COMMON     4     3      1
 ---------------------------------------------------------------------------------
 (2) ___awmod                                              7     3      4     448
                                              0 COMMON     7     3      4
 ---------------------------------------------------------------------------------
 (2) ___awdiv                                              9     5      4     452
                                              0 COMMON     9     5      4
 ---------------------------------------------------------------------------------
 (1) ___xxtofl                                            14    10      4     398
                                              4 COMMON     8     4      4
                                              0 BANK0      6     6      0
                           _read_adc (ARG)
 ---------------------------------------------------------------------------------
 (1) ___fltol                                             11     7      4     305
                                             12 COMMON     2     2      0
                                             58 BANK0      9     5      4
                            ___fldiv (ARG)
                            ___flmul (ARG)
                           ___xxtofl (ARG)
                           _read_adc (ARG)
 ---------------------------------------------------------------------------------
 (1) ___flmul                                             26    18      8    2417
                                             32 BANK0     26    18      8
                          __Umul8_16
                            ___fldiv (ARG)
                           ___xxtofl (ARG)
                           _read_adc (ARG)
 ---------------------------------------------------------------------------------
 (2) __Umul8_16                                            9     7      2     799
                                              0 COMMON     9     7      2
 ---------------------------------------------------------------------------------
 (1) ___fldiv                                             26    18      8    1273
                                              6 BANK0     26    18      8
                           ___xxtofl (ARG)
                           _read_adc (ARG)
 ---------------------------------------------------------------------------------
 Estimated maximum stack depth 6
 ---------------------------------------------------------------------------------

 Call Graph Graphs:

 _main (ROOT)
   ___fldiv
     ___xxtofl (ARG)
       _read_adc (ARG)
     _read_adc (ARG)
   ___flmul
     __Umul8_16
     ___fldiv (ARG)
     ___xxtofl (ARG)
     _read_adc (ARG)
   ___fltol
     ___fldiv (ARG)
     ___flmul (ARG)
     ___xxtofl (ARG)
     _read_adc (ARG)
   ___xxtofl
   _display_dashboard
     ___awdiv
     ___awmod
     _clcd_print
       _clcd_write
     _clcd_putch
       ___awdiv (ARG)
       ___awmod (ARG)
       _clcd_write (ARG)
     _display_time
       _clcd_putch
       _get_time
         _read_ds1307
           _i2c_read
             _i2c_wait_for_idle
           _i2c_rep_start
             _i2c_start
               _i2c_wait_for_idle
             _i2c_stop
               _i2c_wait_for_idle
           _i2c_start
           _i2c_stop
           _i2c_write
             _i2c_wait_for_idle
   _init_config
     _init_adc
     _init_clcd
       _init_display_controller
         _clcd_write
     _init_i2c
       ___lldiv
   _read_adc

 Address spaces:
Name               Size   Autos  Total    Cost      Usage
BANK3               60      0       0       9        0.0%
BITBANK3            60      0       0       8        0.0%
SFR3                 0      0       0       4        0.0%
BITSFR3              0      0       0       4        0.0%
BANK2               60      0       0      11        0.0%
BITBANK2            60      0       0      10        0.0%
SFR2                 0      0       0       5        0.0%
BITSFR2              0      0       0       5        0.0%
BANK1               50      0       C       7       15.0%
BITBANK1            50      0       0       6        0.0%
SFR1                 0      0       0       2        0.0%
BITSFR1              0      0       0       2        0.0%
BANK0               50     4D      4E       5       97.5%
BITBANK0            50      0       0       4        0.0%
SFR0                 0      0       0       1        0.0%
BITSFR0              0      0       0       1        0.0%
COMMON               E      E       E       1      100.0%
BITCOMMON            E      0       0       0        0.0%
CODE                 0      0       0       0        0.0%
DATA                 0      0      68      12        0.0%
ABS                  0      0      68       3        0.0%
NULL                 0      0       0       0        0.0%
STACK                0      0       0       2        0.0%
EEDATA             100      0       0       0        0.0%


Microchip Technology PIC Macro Assembler V2.36 build 20220127204148 
Symbol Table                                                                                   Wed Mar 23 17:55:30 2022

                   ___fldiv@aexp 003F                     ___fldiv@bexp 003E                                pc 0002  
                   ___fldiv@sign 0037                   clcd_print@addr 0074                               l13 001C  
                             l21 01C9                               l42 0CA4                               l45 0CF9  
                             l71 0CD7                               l80 0D99                               l48 0D07  
                             l65 0D27                               l74 0CF5                               l68 0E19  
                             _GO 00FA                     ___awdiv@sign 0076                               fsr 0004  
            __Umul8_16@word_mpld 0076                              l100 0DC6                              l132 004E  
                            l141 0CAD                              l150 0D45                              l135 0CD8  
                            l151 0D48                              l152 0D4A                              l144 0CC1  
                            l313 0F98                              l138 0CE4                              l147 0CB6  
                            l155 0CCC                              l430 0FFF                              l191 00C9  
                            l185 0ED0                              l443 0E72                              l188 0F32  
                            l470 0130                              l710 01FF                              l463 0145  
                            l712 0296                              l473 0145                              l650 0467  
                            l642 03E5                              l626 02F3                              l723 0260  
                            l628 0473                              l724 026C                              l716 0244  
                            l648 0457                              l672 0740                              l666 07D4  
                            l685 0D5F                              l678 07C8                              l687 0D71  
                            _RE1 0049                              _RE2 004A                              _PEN 048A  
                            _SEN 0488                    ?_display_time 0070                   clcd_putch@addr 0079  
                            fsr0 0004                   clcd_putch@data 007A                              indf 0000  
                   ___awmod@sign 0076                     ___flmul@aexp 0052                     ___flmul@bexp 0053  
                   ___flmul@sign 004D                     ___flmul@temp 0058                     ___flmul@prod 0054  
                   ___fltol@exp1 007D                             l2001 06F5                             l2011 071A  
                           l2003 0703                             l2021 073D                             l2005 070C  
                           l2013 0720                             l2101 0146                             l2031 075C  
                           l2015 0724                             l2007 0710                             l2111 01BE  
                           l2103 0158                             l2041 07A2                             l2033 0775  
                           l2025 0745                             l2017 0725                             l2009 0711  
                           l2105 0158                             l2051 07C1                             l2043 07AC  
                           l2027 074A                             l2035 077B                             l2019 0729  
                           l2115 01C9                             l2107 015A                             l2053 07CC  
                           l2045 07AE                             l2037 0788                             l2029 0758  
                           l2061 01E7                             l1501 0CCC                             l2109 0160  
                           l2047 07BC                             l2039 0793                             l2071 0215  
                           l2063 01F7                             l1511 0D36                             l2049 07C0  
                           l2081 024B                             l2073 0222                             l2065 0207  
                           l2057 01DE                             l1521 0D09                             l1513 0D3C  
                           l1505 0CB7                             l1601 0CD2                             l2091 0284  
                           l2083 0256                             l2075 0229                             l2059 01E3  
                           l1523 0D13                             l1611 0D73                             l1515 0D41  
                           l1507 0D29                             l1531 0DC5                             l1603 0C9E  
                           l2093 0289                             l2085 025A                             l2077 022D  
                           l2069 0210                             l1621 0F99                             l1525 0D15  
                           l1613 0D7B                             l1517 0D49                             l1509 0D2E  
                           l1541 0DE6                             l1605 001D                             l1711 0D68  
                           l1703 0D4C                             l2095 028D                             l2087 0264  
                           l2079 023B                             l1631 0FA9                             l1623 0F9A  
                           l1527 0D1B                             l1615 0D89                             l1551 0E08  
                           l1543 0DEB                             l1535 0DC7                             l1607 0020  
                           l1801 02D5                             l1713 0D6D                             l1705 0D4E  
                           l2097 028E                             l2089 026E                             l1641 0FBD  
                           l1633 0FAE                             l1625 0F9E                             l1617 0D8D  
                           l1529 0D9B                             l1561 0EA2                             l1553 0E0D  
                           l1545 0DF2                             l1537 0DCF                             l1609 004B  
                           l1721 000D                             l2185 01D3                             l1811 02E9  
                           l1803 02D6                             l1707 0D55                             l1651 0FE3  
                           l1643 0FC4                             l1635 0FB2                             l1627 0FA3  
                           l1555 0CE6                             l1491 0CAA                             l1563 0EA8  
                           l1619 0ED1                             l1731 005C                             l1547 0DF5  
                           l1539 0DD6                             l1571 0F33                             l1723 0CF6  
                           l1901 044A                             l1805 02DB                             l1813 02EB  
                           l1709 0D59                             l1741 00D7                             l1661 0FFB  
                           l1653 0FE4                             l1645 0FC8                             l1637 0FB4  
                           l1629 0FA5                             l1485 0CD8                             l1493 0CAE  
                           l1565 0EB6                             l1557 0E73                             l1733 0061  
                           l1549 0DFC                             l1581 0F60                             l1573 0F43  
                           l1717 0003                             l1725 0CFD                             l1911 0463  
                           l1903 044E                             l1831 0334                             l1815 02FB  
                           l1823 0314                             l1807 02E0                             l1751 00FE  
                           l1655 0FEB                             l1647 0FCC                             l1639 0FBA  
                           l1671 0E24                             l1487 0CDE                             l1495 0CB3  
                           l1567 0EBC                             l1559 0E94                             l1735 0070  
                           l1583 0F72                             l1575 0F46                             l1591 0F90  
                           l1719 0008                             l1905 0456                             l1841 0353  
                           l1833 033C                             l1825 0319                             l1817 0307  
                           l1809 02E8                             l1921 0481                             l1761 010C  
                           l1753 0100                             l1745 00E0                             l1649 0FDD  
                           l1657 0FF1                             l1681 0E38                             l1673 0E26  
                           l1665 0E1A                             l1489 0CA5                             l1497 0CC3  
                           l1569 0ECA                             l1737 007F                             l1729 0050  
                           l1585 0F80                             l1577 0F53                             l1907 045D  
                           l1851 0385                             l1843 0365                             l1835 0344  
                           l1819 030B                             l1931 0498                             l1923 0485  
                           l1771 0135                             l1755 0104                             l1763 011E  
                           l1747 00F5                             l1739 00CA                             l1659 0FF6  
                           l1691 0E57                             l1683 0E3F                             l1675 0E2A  
                           l1667 0E1B                             l1499 0CC8                             l1595 0CCD  
                           l1587 0F81                             l1579 0F57                             l1909 0461  
                           l1861 03A6                             l1853 0386                             l1845 0369  
                           l1837 034C                             l1829 0322                             l1781 02A8  
                           l1941 04B1                             l1933 049A                             l1925 0486  
                           l1917 0474                             l1773 013A                             l1749 00F6  
                           l1693 0E5E                             l1685 0E43                             l1677 0E2F  
                           l1669 0E1F                             l1597 0CD0                             l1589 0F8A  
                           l1871 03BF                             l1863 03A8                             l1855 0394  
                           l1847 036A                             l1839 034E                             l1791 02BC  
                           l1783 02A9                             l1775 0297                             l1951 04C6  
                           l1943 04B2                             l1935 04A2                             l1927 048B  
                           l1919 047B                             l1687 0E47                             l1679 0E35  
                           l1695 0E64                             l1599 0CD1                             l1881 03E2  
                           l1865 03B1                             l1873 03C5                             l1849 0373  
                           l1857 0398                             l1785 02AE                             l1793 02BE  
                           l1777 029E                             l1961 04E1                             l1953 04CE  
                           l1945 04B7                             l1937 04A7                             l1929 0490  
                           l1769 0125                             l1697 0E69                             l1689 0E51  
                           l1891 0401                             l1875 03C9                             l1867 03B5  
                           l1859 039E                             l1795 02C6                             l1787 02B3  
                           l1779 02A4                             l1971 0563                             l1963 04F1  
                           l1955 04D3                             l1947 04BC                             l1939 04AD  
                           l1699 0E6E                             l1893 041A                             l1885 03EA  
                           l1877 03CA                             l1869 03B6                             l1797 02CB  
                           l1789 02BB                             l1981 05D1                             l1973 057F  
                           l1965 04FE                             l1957 04D8                             l1949 04C4  
                           l1887 03EF                             l1895 0420                             l1879 03CE  
                           l1799 02D1                             l1991 0661                             l1983 05E1  
                           l1975 059B                             l1967 051B                             l1897 042D  
                           l1889 03FD                             l1993 0671                             l1985 05FE  
                           l1977 05A4                             l1969 0537                             l1899 043B  
                           l1995 069E                             l1987 0617                             l1979 05B4  
                           l1997 06C4                             l1989 0634                             l1999 06EC  
                           _ADFM 04FF                             _ADON 00F8                             STR_1 0806  
                           u2000 03A6                             u2001 03A5                             u2100 0410  
                           u2020 03B5                             u2021 03B4                             u2110 042D  
                           u2111 042C                             u2015 03AA                             u2120 044A  
                           u2040 03C9                             u2200 04D3                             u2121 0449  
                           u2105 040B                             u2041 03C8                             u2201 04D2  
                           u2130 0461                             u2050 03CE                             u2210 04D8  
                           u2131 0460                             u2115 0429                             u2051 03CD  
                           u2035 03B8                             u2211 04D7                             u2060 03E2  
                           u2140 0485                             u1500 002E                             u2125 0446  
                           u2061 03E1                             u2301 0626                             u2221 0529  
                           u2141 0484                             u1405 0E97                             u2070 03E9  
                           u2302 062D                             u2222 0530                             u2150 048B  
                           u1510 0D99                             u1350 0CDE                             u1430 0F43  
                           u2071 03E8                             u2311 0653                             u2303 0634  
                           u2231 0545                             u2223 0537                             u2151 048A  
                           u1511 0D98                             u1351 0CDD                             u1415 0EAB  
                           u1431 0F42                             u2080 03EF                             u2312 065A  
                           u2232 054C                             u2160 0490                             u1600 0FF1  
                           u1520 0F9E                             u1360 0CE4                             u2081 03EE  
                           u2321 0680                             u2313 0661                             u2241 0571  
                           u2233 0553                             u2161 048F                             u1601 0FF0  
                           u1521 0F9D                             u1361 0CE3                             u1425 0EBF  
                           u1505 0029                             u2090 0401                             u2410 0724  
                           u2330 06AA                             u2322 0687                             u2242 0578  
                           u2170 04B1                             u1610 0FF6                             u1530 0FA9  
                           u1370 0D41                             u1450 0F57                             u2091 0400  
                           u2411 0723                             u2323 068E                             u2251 058D  
                           u2243 057F                             u2171 04B0                             u1611 0FF5  
                           u1531 0FA8                             u1371 0D40                             u1451 0F56  
                           u2500 07C0                             u2420 0729                             u2252 0594  
                           u2180 04B7                             u1540 0FBA                             u1700 0E69  
                           u1620 0E1F                             u1380 0D10                             u2501 07BF  
                           u2421 0728                             u2405 0713                             u2341 06B6  
                           u2253 059B                             u2181 04B6                             u1541 0FB9  
                           u1701 0E68                             u1621 0E1E                             u1381 0D0C  
                           u1445 0F48                             u1710 0D59                             u2430 073D  
                           u2350 06D2                             u2342 06BD                             u2190 04BC  
                           u2510 01E3                             u1630 0E2A                             u1470 0F72  
                           u1711 0D58                             u2431 073C                             u2343 06C4  
                           u2335 06A5                             u2271 05C3                             u2191 04BB  
                           u2511 01E2                             u1631 0E29                             u1471 0F71  
                           u2440 0744                             u2272 05CA                             u1800 011D  
                           u2600 0260                             u2520 01E7                             u1560 0FCC  
                           u1640 0E35                             u2441 0743                             u2361 06DE  
                           u2281 05F0                             u2273 05D1                             u2265 059D  
                           u1801 011C                             u2601 025F                             u2521 01E6  
                           u1561 0FCB                             u1641 0E34                             u1465 0F59  
                           u1730 0D6D                             u2450 074A                             u2362 06E5  
                           u2282 05F7                             u1810 0124                             u2610 0264  
                           u2530 0207                             u1394 0D13                             u1490 0F90  
                           u1731 0D6C                             u2451 0749                             u2363 06EC  
                           u2355 06CD                             u2283 05FE                             u1811 0123  
                           u2611 0263                             u2531 0206                             u1555 0FBE  
                           u1491 0F8F                             u1475 0F6E                             u1900 02E0  
                           u2460 075C                             u2620 0279                             u1580 0FDD  
                           u1660 0E47                             u1740 0CFD                             u1901 02DF  
                           u1725 0D60                             u2461 075B                             u1581 0FDC  
                           u1661 0E46                             u1485 0F82                             u1741 0CFC  
                           u1910 02FB                             u2470 076B                             u2390 0710  
                           u1830 0135                             u1750 00D7                             u2630 0289  
                           u2550 0228                             u1670 0E51                             u1911 02FA  
                           u2391 070F                             u2375 06EE                             u2295 0600  
                           u1831 0134                             u1751 00D6                             u2631 0288  
                           u2551 0227                             u1575 0FCD                             u1671 0E50  
                           u1655 0E39                             u1920 0319                             u2480 0788  
                           u1840 013A                             u1760 00EE                             u2640 028D  
                           u1921 0318                             u2481 0787                             u2385 0705  
                           u1841 0139                             u1825 0127                             u2641 028C  
                           u2625 0274                             u2545 021A                             u1585 0FD9  
                           u1930 0353                             u1850 02A8                             u2490 07A2  
                           u1770 0104                             u2570 024A                             u1690 0E64  
                           u1931 0352                             u1851 02A7                             u2491 07A1  
                           u2475 0766                             u1771 0103                             u2571 0249  
                           u1595 0FE5                             u1691 0E63                             u1675 0E4D  
                           u2707 0DDA                             u1860 02AE                             u1780 010B  
                           u1861 02AD                             u2485 0784                             u1781 010A  
                           u1765 00E9                             u2565 023C                             u1685 0E58  
                           u2717 0DE8                             u1870 02B3                             u2590 025A  
                           u1871 02B2                             u2495 079E                             u2591 0259  
                           u2727 0DFE                             u1960 0369                             u1880 02D5  
                           u1961 0368                             u1945 0355                             u1881 02D4  
                           u2585 024F                             u2737 0E0A                             u1890 02DB  
                           u1955 035E                             u1891 02DA                             u1795 010D  
                           u2747 0E16                             u1980 0385                             u1981 0384  
                           u2757 0D18                             u1990 039E                             u1991 039D  
                           u1975 036C                             u2767 0D22                             u1985 0381  
                           u2697 0DCB                             _RCEN 048B                             _R_nW 04A2  
                           _main 0146                             _time 00A0                             btemp 007E  
                           start 0000                  ___fldiv@new_exp 0038                   clcd_write@byte 0073  
                 clcd_write@mode 0070                    _i2c_rep_start 0CB7                    ___fltol@sign1 007C  
                          ?_main 0070                     ?_read_ds1307 0070                            _ACKEN 048C  
                          _ACKDT 048D                   ??_display_time 007B                  __end_of___fldiv 0474  
                __end_of___awdiv 1000                  __end_of___awmod 0E73                  __end_of___flmul 07D5  
                __end_of___fltol 0146                  __end_of___lldiv 0F99                      i2c_read@ack 0071  
                ___awdiv@divisor 0070                     ?_init_config 0070                  ___awdiv@counter 0075  
                          _PORTB 0006                            _PORTD 0008                            _SSPM3 00A3  
                          _TRISB 0086                            _TRISD 0088                            _SSPEN 00A5  
                          _nDONE 00FA                            pclath 000A                            status 0003  
                          wtemp0 007E                  __initialization 07D5                   ?_i2c_rep_start 0070  
                   __end_of_main 01DB                 __end_of_i2c_read 0D4B                 __end_of_i2c_stop 0CB7  
                         ??_main 0063                           _ADRESH 001E                           _ADRESL 009E  
               ___awdiv@dividend 0072                     i2c_read@data 0072                           _SSPADD 0093  
                         _TRISE1 0449                           _TRISE2 044A                           _SSPBUF 0013  
               __end_of___xxtofl 0297                 __end_of_get_time 0ED1          _init_display_controller 0DC7  
                      ??___fldiv 002E                        ??___awdiv 0074                        ??___awmod 0074  
                      ??___flmul 0048                        ??___fltol 005E                        ??___lldiv 0078  
               __end_of_init_i2c 004F                 __end_of_init_adc 0CA5                 __end_of_read_adc 0D08  
               ___awdiv@quotient 0077                  ___awmod@divisor 0070                  ___awmod@counter 0075  
                   ___xxtofl@arg 0022                     ___xxtofl@exp 0021                     ___xxtofl@val 0074  
        __end_of__initialization 07FC             __end_of_display_time 0F33                       ___fltol@f1 005A  
                ??_i2c_rep_start 0070                   __pcstackCOMMON 0070                     __pidataBANK0 0C9A  
                   __pidataBANK1 0C9B                __end_of_i2c_start 0CAE                __end_of_i2c_write 0CCD  
              _i2c_wait_for_idle 0CD8               ?_i2c_wait_for_idle 0070                       __pbssBANK1 00A0  
                      ?_i2c_read 0070                        ?_i2c_stop 0070        ??_init_display_controller 0074  
                     _clcd_print 0D72              ??_i2c_wait_for_idle 0070                       _clcd_putch 0CE5  
                     _clcd_write 0D08                __end_of__Umul8_16 0D72                       __pmaintext 0146  
                read_ds1307@addr 0074                  read_ds1307@data 0075                          _ACKSTAT 048E  
                      ?___xxtofl 0074        __end_of_i2c_wait_for_idle 0CE5                     init_i2c@baud 0020  
                        _SSPCON2 0091                        ?_get_time 0070                       __stringtab 0800  
                     ??_i2c_read 0070                       ??_i2c_stop 0070                        ?_init_i2c 0020  
                      ?_init_adc 0070                        ?_read_adc 0070                          ___fldiv 0297  
                        ___awdiv 0F99                          ___awmod 0E1A                          ___flmul 0474  
                        ___fltol 00CA                          ___lldiv 0F33                 main@control_flag 006B  
                        __ptext1 0CF6                          __ptext2 0003                          __ptext3 001D  
                        __ptext4 0F33                          __ptext5 0CCD                          __ptext6 0DC7  
                        __ptext7 0C9E                          __ptext8 004F                          __ptext9 0ED1  
__end_of_init_display_controller 0E1A                __end_of_init_clcd 0CD8                       ??___xxtofl 0078  
               ___awmod@dividend 0072           display_dashboard@event 007D           display_dashboard@speed 007C  
                     ??_get_time 0076             end_of_initialization 07FC                       ??_init_i2c 0024  
                     ??_init_adc 0070                       ??_read_adc 0072                      ?_clcd_print 0074  
                    ?_clcd_putch 0079                  ___lldiv@divisor 0070                      ?_clcd_write 0070  
                ___lldiv@counter 007D                     _display_time 0ED1                    i2c_write@data 0070  
                  ___xxtofl@sign 0020                      ___fldiv@grs 003A                      ___fldiv@rem 0033  
                  clcd_print@str 0076                      ___flmul@grs 004E              start_initialization 07D5  
                      _i2c_start 0CA5                        _i2c_write 0CC2            __end_of_i2c_rep_start 0CC2  
                      __Umul8_16 0D4B                      __pdataBANK0 006D                      __pdataBANK1 00A9  
                  ??_read_ds1307 0073                    ??_init_config 007E                        ___fldiv@a 0026  
                      ___fldiv@b 002A                        ___flmul@a 0044                        ___flmul@b 0040  
                      ___latbits 0002                    __pcstackBANK0 0020                       ?_i2c_start 0070  
                     ?_i2c_write 0070                         ?___fldiv 0026                         ?___awdiv 0070  
                       ?___awmod 0070                         ?___flmul 0040                         ?___fltol 005A  
              _display_dashboard 004F                         ?___lldiv 0070                       ?__Umul8_16 0070  
                      _clock_reg 00A6               ?_display_dashboard 007C                        __pstrings 0800  
            read_adc@adc_reg_val 0072              ??_display_dashboard 0020              __end_of_read_ds1307 0DC7  
                      _init_clcd 0CCD              __end_of_init_config 001D         ?_init_display_controller 0070  
                   ??_clcd_print 0075                     ??_clcd_putch 007A                     ??_clcd_write 0071  
      __end_of_display_dashboard 00CA                      __stringbase 0805                        main@event 0068  
                      main@speed 006C                      ??_i2c_start 0070               __end_of_clcd_print 0D9A  
                    ??_i2c_write 0070               __end_of_clcd_putch 0CF6               __end_of_clcd_write 0D28  
                     ?_init_clcd 0070                         _i2c_read 0D28                         _i2c_stop 0CAE  
                    ??__Umul8_16 0072               __end_of__stringtab 0806                      _read_ds1307 0D9A  
                    _init_config 0003                         ___xxtofl 01DB                         __ptext10 0E73  
                       __ptext11 0D9A                         __ptext20 0D08                         __ptext12 0CC2  
                       __ptext21 0E1A                         __ptext13 0CB7                         __ptext22 0F99  
                       __ptext14 0CAE                         __ptext23 01DB                         __ptext15 0CA5  
                       __ptext24 00CA                         __ptext16 0D28                         __ptext25 0474  
                       __ptext17 0CD8                         __ptext26 0D4B                         __ptext18 0CE5  
                       __ptext27 0297                         __ptext19 0D72                         _get_time 0E73  
                       _init_i2c 001D                         _init_adc 0C9E                         _read_adc 0CF6  
        read_digital_keypad@once 006D                         main@F911 00A9                      ??_init_clcd 0076  
               ___lldiv@dividend 0074                        stringcode 0800           __Umul8_16@multiplicand 0070  
               ___lldiv@quotient 0079                         stringdir 0800                         stringtab 0800  
           __Umul8_16@multiplier 0078                __Umul8_16@product 0074  
